{
   <insert_a_suppression_name_here>
   Memcheck:Leak
   match-leak-kinds: reachable
   fun:malloc
   fun:_ZN6icu_7111Normalizer211getInstanceEPKcS2_19UNormalization2ModeR10UErrorCode
   fun:uidna_openUTS46_71
   fun:_ZN4node4i18n7ToASCIIEPNS_16MaybeStackBufferIcLm1024EEEPKcmNS0_9idna_modeE
   fun:_ZN4node4i18nL7ToASCIIERKN2v820FunctionCallbackInfoINS1_5ValueEEE
   fun:_ZN2v88internal12_GLOBAL__N_119HandleApiCallHelperILb0EEENS0_11MaybeHandleINS0_6ObjectEEEPNS0_7IsolateENS0_6HandleINS0_10HeapObjectEEESA_NS8_INS0_20FunctionTemplateInfoEEENS8_IS4_EENS0_16BuiltinArgumentsE
   fun:_ZN2v88internal21Builtin_HandleApiCallEiPmPNS0_7IsolateE
   fun:Builtins_CEntry_Return1_DontSaveFPRegs_ArgvOnStack_BuiltinExit
   fun:Builtins_InterpreterEntryTrampoline
   fun:Builtins_InterpreterEntryTrampoline
   fun:Builtins_InterpreterEntryTrampoline
   fun:Builtins_InterpreterEntryTrampoline
   fun:Builtins_InterpreterEntryTrampoline
   fun:Builtins_InterpreterEntryTrampoline
   fun:Builtins_InterpreterEntryTrampoline
   fun:Builtins_InterpreterEntryTrampoline
   fun:Builtins_InterpreterEntryTrampoline
   fun:Builtins_InterpreterEntryTrampoline
   fun:Builtins_InterpreterEntryTrampoline
   fun:Builtins_InterpreterEntryTrampoline
   fun:Builtins_InterpreterEntryTrampoline
   fun:Builtins_InterpreterEntryTrampoline
   fun:Builtins_InterpreterEntryTrampoline
   fun:Builtins_InterpreterEntryTrampoline
   fun:Builtins_InterpreterEntryTrampoline
   fun:Builtins_InterpreterEntryTrampoline
   fun:Builtins_JSEntryTrampoline
   fun:Builtins_JSEntry
   fun:_ZN2v88internal12_GLOBAL__N_16InvokeEPNS0_7IsolateERKNS1_12InvokeParamsE
   fun:_ZN2v88internal9Execution4CallEPNS0_7IsolateENS0_6HandleINS0_6ObjectEEES6_iPS6_
   fun:_ZN2v88Function4CallENS_5LocalINS_7ContextEEENS1_INS_5ValueEEEiPS5_
   fun:_ZN4node19ExecuteBootstrapperEPNS_11EnvironmentEPKcPSt6vectorIN2v85LocalINS5_6StringEEESaIS8_EEPS4_INS6_INS5_5ValueEEESaISD_EE
   fun:_ZN4nodeL14StartExecutionEPNS_11EnvironmentEPKc
   fun:_ZN4node14StartExecutionEPNS_11EnvironmentESt8functionIFN2v810MaybeLocalINS3_5ValueEEERKNS_26StartExecutionCallbackInfoEEE
   fun:_ZN4node15LoadEnvironmentEPNS_11EnvironmentESt8functionIFN2v810MaybeLocalINS3_5ValueEEERKNS_26StartExecutionCallbackInfoEEE
   fun:_ZN4node16NodeMainInstance3RunEv
   fun:_ZN4node5StartEiPPc
   fun:(below main)
}
{
   <insert_a_suppression_name_here>
   Memcheck:Leak
   match-leak-kinds: reachable
   fun:_Znwm
   fun:_ZN2v87tracing23TracingCategoryObserver5SetUpEv
   fun:_ZN4node24InitializeOncePerProcessEiPPcNS_27InitializationSettingsFlagsENS_12ProcessFlags5FlagsE
   fun:_ZN4node5StartEiPPc
   fun:(below main)
}
{
   <insert_a_suppression_name_here>
   Memcheck:Leak
   match-leak-kinds: reachable
   fun:_Znwm
   fun:_ZNSt6vectorImSaImEE17_M_realloc_insertIJRKmEEEvN9__gnu_cxx17__normal_iteratorIPmS1_EEDpOT_
   fun:_ZN2v88internal20CodeRangeAddressHint20NotifyFreedCodeRangeEmm
   fun:_ZNSt23_Sp_counted_ptr_inplaceIN2v88internal9CodeRangeESaIS2_ELN9__gnu_cxx12_Lock_policyE2EE10_M_disposeEv
   fun:_ZN2v88internal4HeapD1Ev
   fun:_ZN2v88internal7IsolateD1Ev
   fun:_ZN2v88internal7Isolate6DeleteEPS1_
   fun:_ZN4node16NodeMainInstanceD1Ev
   fun:_ZN4node5StartEiPPc
   fun:(below main)
}
{
   <insert_a_suppression_name_here>
   Memcheck:Leak
   match-leak-kinds: reachable
   fun:malloc
   fun:_ZL10init_entryPKcS0_P10UErrorCode
   fun:_ZL15entryOpenDirectPKcS0_P10UErrorCode
   fun:ures_openDirectFillIn_71
   fun:_ZN6icu_718TimeZone16getTZDataVersionER10UErrorCode
   fun:_ZN4node8Metadata8Versions22InitializeIntlVersionsEv
   fun:_ZN4node22InitializeNodeWithArgsEPSt6vectorISsSaISsEES3_S3_NS_12ProcessFlags5FlagsE
   fun:_ZN4node24InitializeOncePerProcessEiPPcNS_27InitializationSettingsFlagsENS_12ProcessFlags5FlagsE
   fun:_ZN4node5StartEiPPc
   fun:(below main)
}
{
   <insert_a_suppression_name_here>
   Memcheck:Leak
   match-leak-kinds: reachable
   fun:_Znwm
   fun:_ZN4node22PerIsolatePlatformData28FlushForegroundTasksInternalEv
   fun:uv__async_io.part.1
   fun:uv__io_poll
   fun:uv_run
   fun:_ZN4node13SpinEventLoopEPNS_11EnvironmentE
   fun:_ZN4node16NodeMainInstance3RunEv
   fun:_ZN4node5StartEiPPc
   fun:(below main)
}
{
   <insert_a_suppression_name_here>
   Memcheck:Leak
   match-leak-kinds: reachable
   fun:malloc
   fun:_ZL10init_entryPKcS0_P10UErrorCode
   fun:_ZL15entryOpenDirectPKcS0_P10UErrorCode
   fun:ures_openDirect_71
   fun:ulocdata_getCLDRVersion_71
   fun:_ZN4node8Metadata8Versions22InitializeIntlVersionsEv
   fun:_ZN4node22InitializeNodeWithArgsEPSt6vectorISsSaISsEES3_S3_NS_12ProcessFlags5FlagsE
   fun:_ZN4node24InitializeOncePerProcessEiPPcNS_27InitializationSettingsFlagsENS_12ProcessFlags5FlagsE
   fun:_ZN4node5StartEiPPc
   fun:(below main)
}
{
   <insert_a_suppression_name_here>
   Memcheck:Leak
   match-leak-kinds: definite
   fun:_Znam
   fun:_ZN15ODBCAsyncWorker13GetODBCErrorsEsPv
   fun:_ZN18ConnectAsyncWorker7ExecuteEv
   fun:worker
   fun:start_thread
   fun:clone
}
{
   <insert_a_suppression_name_here>
   Memcheck:Leak
   match-leak-kinds: reachable
   fun:_Znwm
   fun:_ZN2v88internal20CodeRangeAddressHint20NotifyFreedCodeRangeEmm
   fun:_ZNSt23_Sp_counted_ptr_inplaceIN2v88internal9CodeRangeESaIS2_ELN9__gnu_cxx12_Lock_policyE2EE10_M_disposeEv
   fun:_ZN2v88internal4HeapD1Ev
   fun:_ZN2v88internal7IsolateD1Ev
   fun:_ZN2v88internal7Isolate6DeleteEPS1_
   fun:_ZN4node16NodeMainInstanceD1Ev
   fun:_ZN4node5StartEiPPc
   fun:(below main)
}
{
   <insert_a_suppression_name_here>
   Memcheck:Leak
   match-leak-kinds: definite
   fun:_Znwm
   fun:InstanceAccessor
   fun:_ZN14ODBCConnection4InitEN4Napi3EnvENS0_6ObjectE
   fun:_Z7InitAllN4Napi3EnvENS_6ObjectE
   fun:operator()
   fun:WrapCallback<Napi::RegisterModule(napi_env, napi_value, Napi::ModuleRegisterCallback)::<lambda()> >
   fun:RegisterModule
   fun:_Z14__napi_InitAllP10napi_env__P12napi_value__
   fun:_Z30napi_module_register_by_symbolN2v85LocalINS_6ObjectEEENS0_INS_5ValueEEENS0_INS_7ContextEEEPFP12napi_value__P10napi_env__S8_E
   fun:_ZZN4node7binding6DLOpenERKN2v820FunctionCallbackInfoINS1_5ValueEEEENKUlPNS0_4DLibEE_clES8_
   fun:_ZN4node11Environment12TryLoadAddonEPKciRKSt8functionIFbPNS_7binding4DLibEEE
   fun:_ZN4node7binding6DLOpenERKN2v820FunctionCallbackInfoINS1_5ValueEEE
   fun:_ZN2v88internal12_GLOBAL__N_119HandleApiCallHelperILb0EEENS0_11MaybeHandleINS0_6ObjectEEEPNS0_7IsolateENS0_6HandleINS0_10HeapObjectEEESA_NS8_INS0_20FunctionTemplateInfoEEENS8_IS4_EENS0_16BuiltinArgumentsE
   fun:_ZN2v88internal21Builtin_HandleApiCallEiPmPNS0_7IsolateE
   fun:Builtins_CEntry_Return1_DontSaveFPRegs_ArgvOnStack_BuiltinExit
   fun:Builtins_InterpreterEntryTrampoline
   obj:*
   obj:*
   obj:*
   obj:*
   fun:Builtins_InterpreterEntryTrampoline
   fun:Builtins_InterpreterEntryTrampoline
   fun:Builtins_InterpreterEntryTrampoline
   fun:Builtins_InterpreterEntryTrampoline
   fun:Builtins_InterpreterEntryTrampoline
   fun:Builtins_InterpreterEntryTrampoline
   fun:Builtins_InterpreterEntryTrampoline
   fun:Builtins_InterpreterEntryTrampoline
   fun:Builtins_InterpreterEntryTrampoline
   fun:Builtins_InterpreterEntryTrampoline
   fun:Builtins_InterpreterEntryTrampoline
   fun:Builtins_InterpreterEntryTrampoline
   fun:Builtins_InterpreterEntryTrampoline
   fun:Builtins_InterpreterEntryTrampoline
   fun:Builtins_JSEntryTrampoline
   fun:Builtins_JSEntry
   fun:_ZN2v88internal12_GLOBAL__N_16InvokeEPNS0_7IsolateERKNS1_12InvokeParamsE
   fun:_ZN2v88internal9Execution4CallEPNS0_7IsolateENS0_6HandleINS0_6ObjectEEES6_iPS6_
   fun:_ZN2v88Function4CallENS_5LocalINS_7ContextEEENS1_INS_5ValueEEEiPS5_
   fun:_ZN4node19ExecuteBootstrapperEPNS_11EnvironmentEPKcPSt6vectorIN2v85LocalINS5_6StringEEESaIS8_EEPS4_INS6_INS5_5ValueEEESaISD_EE
   fun:_ZN4nodeL14StartExecutionEPNS_11EnvironmentEPKc
   fun:_ZN4node14StartExecutionEPNS_11EnvironmentESt8functionIFN2v810MaybeLocalINS3_5ValueEEERKNS_26StartExecutionCallbackInfoEEE
   fun:_ZN4node15LoadEnvironmentEPNS_11EnvironmentESt8functionIFN2v810MaybeLocalINS3_5ValueEEERKNS_26StartExecutionCallbackInfoEEE
   fun:_ZN4node16NodeMainInstance3RunEv
   fun:_ZN4node5StartEiPPc
   fun:(below main)
}
{
   <insert_a_suppression_name_here>
   Memcheck:Leak
   match-leak-kinds: definite
   fun:_Znwm
   fun:InstanceAccessor
   fun:_ZN14ODBCConnection4InitEN4Napi3EnvENS0_6ObjectE
   fun:_Z7InitAllN4Napi3EnvENS_6ObjectE
   fun:operator()
   fun:WrapCallback<Napi::RegisterModule(napi_env, napi_value, Napi::ModuleRegisterCallback)::<lambda()> >
   fun:RegisterModule
   fun:_Z14__napi_InitAllP10napi_env__P12napi_value__
   fun:_Z30napi_module_register_by_symbolN2v85LocalINS_6ObjectEEENS0_INS_5ValueEEENS0_INS_7ContextEEEPFP12napi_value__P10napi_env__S8_E
   fun:_ZZN4node7binding6DLOpenERKN2v820FunctionCallbackInfoINS1_5ValueEEEENKUlPNS0_4DLibEE_clES8_
   fun:_ZN4node11Environment12TryLoadAddonEPKciRKSt8functionIFbPNS_7binding4DLibEEE
   fun:_ZN4node7binding6DLOpenERKN2v820FunctionCallbackInfoINS1_5ValueEEE
   fun:_ZN2v88internal12_GLOBAL__N_119HandleApiCallHelperILb0EEENS0_11MaybeHandleINS0_6ObjectEEEPNS0_7IsolateENS0_6HandleINS0_10HeapObjectEEESA_NS8_INS0_20FunctionTemplateInfoEEENS8_IS4_EENS0_16BuiltinArgumentsE
   fun:_ZN2v88internal21Builtin_HandleApiCallEiPmPNS0_7IsolateE
   fun:Builtins_CEntry_Return1_DontSaveFPRegs_ArgvOnStack_BuiltinExit
   fun:Builtins_InterpreterEntryTrampoline
   obj:*
   obj:*
   obj:*
   obj:*
   fun:Builtins_InterpreterEntryTrampoline
   fun:Builtins_InterpreterEntryTrampoline
   fun:Builtins_InterpreterEntryTrampoline
   fun:Builtins_InterpreterEntryTrampoline
   fun:Builtins_InterpreterEntryTrampoline
   fun:Builtins_InterpreterEntryTrampoline
   fun:Builtins_InterpreterEntryTrampoline
   fun:Builtins_InterpreterEntryTrampoline
   fun:Builtins_InterpreterEntryTrampoline
   fun:Builtins_InterpreterEntryTrampoline
   fun:Builtins_InterpreterEntryTrampoline
   fun:Builtins_InterpreterEntryTrampoline
   fun:Builtins_InterpreterEntryTrampoline
   fun:Builtins_InterpreterEntryTrampoline
   fun:Builtins_JSEntryTrampoline
   fun:Builtins_JSEntry
   fun:_ZN2v88internal12_GLOBAL__N_16InvokeEPNS0_7IsolateERKNS1_12InvokeParamsE
   fun:_ZN2v88internal9Execution4CallEPNS0_7IsolateENS0_6HandleINS0_6ObjectEEES6_iPS6_
   fun:_ZN2v88Function4CallENS_5LocalINS_7ContextEEENS1_INS_5ValueEEEiPS5_
   fun:_ZN4node19ExecuteBootstrapperEPNS_11EnvironmentEPKcPSt6vectorIN2v85LocalINS5_6StringEEESaIS8_EEPS4_INS6_INS5_5ValueEEESaISD_EE
   fun:_ZN4nodeL14StartExecutionEPNS_11EnvironmentEPKc
   fun:_ZN4node14StartExecutionEPNS_11EnvironmentESt8functionIFN2v810MaybeLocalINS3_5ValueEEERKNS_26StartExecutionCallbackInfoEEE
   fun:_ZN4node15LoadEnvironmentEPNS_11EnvironmentESt8functionIFN2v810MaybeLocalINS3_5ValueEEERKNS_26StartExecutionCallbackInfoEEE
   fun:_ZN4node16NodeMainInstance3RunEv
   fun:_ZN4node5StartEiPPc
   fun:(below main)
}
{
   <insert_a_suppression_name_here>
   Memcheck:Leak
   match-leak-kinds: definite
   fun:_Znwm
   fun:InstanceAccessor
   fun:_ZN14ODBCConnection4InitEN4Napi3EnvENS0_6ObjectE
   fun:_Z7InitAllN4Napi3EnvENS_6ObjectE
   fun:operator()
   fun:WrapCallback<Napi::RegisterModule(napi_env, napi_value, Napi::ModuleRegisterCallback)::<lambda()> >
   fun:RegisterModule
   fun:_Z14__napi_InitAllP10napi_env__P12napi_value__
   fun:_Z30napi_module_register_by_symbolN2v85LocalINS_6ObjectEEENS0_INS_5ValueEEENS0_INS_7ContextEEEPFP12napi_value__P10napi_env__S8_E
   fun:_ZZN4node7binding6DLOpenERKN2v820FunctionCallbackInfoINS1_5ValueEEEENKUlPNS0_4DLibEE_clES8_
   fun:_ZN4node11Environment12TryLoadAddonEPKciRKSt8functionIFbPNS_7binding4DLibEEE
   fun:_ZN4node7binding6DLOpenERKN2v820FunctionCallbackInfoINS1_5ValueEEE
   fun:_ZN2v88internal12_GLOBAL__N_119HandleApiCallHelperILb0EEENS0_11MaybeHandleINS0_6ObjectEEEPNS0_7IsolateENS0_6HandleINS0_10HeapObjectEEESA_NS8_INS0_20FunctionTemplateInfoEEENS8_IS4_EENS0_16BuiltinArgumentsE
   fun:_ZN2v88internal21Builtin_HandleApiCallEiPmPNS0_7IsolateE
   fun:Builtins_CEntry_Return1_DontSaveFPRegs_ArgvOnStack_BuiltinExit
   fun:Builtins_InterpreterEntryTrampoline
   obj:*
   obj:*
   obj:*
   obj:*
   fun:Builtins_InterpreterEntryTrampoline
   fun:Builtins_InterpreterEntryTrampoline
   fun:Builtins_InterpreterEntryTrampoline
   fun:Builtins_InterpreterEntryTrampoline
   fun:Builtins_InterpreterEntryTrampoline
   fun:Builtins_InterpreterEntryTrampoline
   fun:Builtins_InterpreterEntryTrampoline
   fun:Builtins_InterpreterEntryTrampoline
   fun:Builtins_InterpreterEntryTrampoline
   fun:Builtins_InterpreterEntryTrampoline
   fun:Builtins_InterpreterEntryTrampoline
   fun:Builtins_InterpreterEntryTrampoline
   fun:Builtins_InterpreterEntryTrampoline
   fun:Builtins_InterpreterEntryTrampoline
   fun:Builtins_JSEntryTrampoline
   fun:Builtins_JSEntry
   fun:_ZN2v88internal12_GLOBAL__N_16InvokeEPNS0_7IsolateERKNS1_12InvokeParamsE
   fun:_ZN2v88internal9Execution4CallEPNS0_7IsolateENS0_6HandleINS0_6ObjectEEES6_iPS6_
   fun:_ZN2v88Function4CallENS_5LocalINS_7ContextEEENS1_INS_5ValueEEEiPS5_
   fun:_ZN4node19ExecuteBootstrapperEPNS_11EnvironmentEPKcPSt6vectorIN2v85LocalINS5_6StringEEESaIS8_EEPS4_INS6_INS5_5ValueEEESaISD_EE
   fun:_ZN4nodeL14StartExecutionEPNS_11EnvironmentEPKc
   fun:_ZN4node14StartExecutionEPNS_11EnvironmentESt8functionIFN2v810MaybeLocalINS3_5ValueEEERKNS_26StartExecutionCallbackInfoEEE
   fun:_ZN4node15LoadEnvironmentEPNS_11EnvironmentESt8functionIFN2v810MaybeLocalINS3_5ValueEEERKNS_26StartExecutionCallbackInfoEEE
   fun:_ZN4node16NodeMainInstance3RunEv
   fun:_ZN4node5StartEiPPc
   fun:(below main)
}
{
   <insert_a_suppression_name_here>
   Memcheck:Leak
   match-leak-kinds: definite
   fun:_Znwm
   fun:InstanceAccessor
   fun:_ZN14ODBCConnection4InitEN4Napi3EnvENS0_6ObjectE
   fun:_Z7InitAllN4Napi3EnvENS_6ObjectE
   fun:operator()
   fun:WrapCallback<Napi::RegisterModule(napi_env, napi_value, Napi::ModuleRegisterCallback)::<lambda()> >
   fun:RegisterModule
   fun:_Z14__napi_InitAllP10napi_env__P12napi_value__
   fun:_Z30napi_module_register_by_symbolN2v85LocalINS_6ObjectEEENS0_INS_5ValueEEENS0_INS_7ContextEEEPFP12napi_value__P10napi_env__S8_E
   fun:_ZZN4node7binding6DLOpenERKN2v820FunctionCallbackInfoINS1_5ValueEEEENKUlPNS0_4DLibEE_clES8_
   fun:_ZN4node11Environment12TryLoadAddonEPKciRKSt8functionIFbPNS_7binding4DLibEEE
   fun:_ZN4node7binding6DLOpenERKN2v820FunctionCallbackInfoINS1_5ValueEEE
   fun:_ZN2v88internal12_GLOBAL__N_119HandleApiCallHelperILb0EEENS0_11MaybeHandleINS0_6ObjectEEEPNS0_7IsolateENS0_6HandleINS0_10HeapObjectEEESA_NS8_INS0_20FunctionTemplateInfoEEENS8_IS4_EENS0_16BuiltinArgumentsE
   fun:_ZN2v88internal21Builtin_HandleApiCallEiPmPNS0_7IsolateE
   fun:Builtins_CEntry_Return1_DontSaveFPRegs_ArgvOnStack_BuiltinExit
   fun:Builtins_InterpreterEntryTrampoline
   obj:*
   obj:*
   obj:*
   obj:*
   fun:Builtins_InterpreterEntryTrampoline
   fun:Builtins_InterpreterEntryTrampoline
   fun:Builtins_InterpreterEntryTrampoline
   fun:Builtins_InterpreterEntryTrampoline
   fun:Builtins_InterpreterEntryTrampoline
   fun:Builtins_InterpreterEntryTrampoline
   fun:Builtins_InterpreterEntryTrampoline
   fun:Builtins_InterpreterEntryTrampoline
   fun:Builtins_InterpreterEntryTrampoline
   fun:Builtins_InterpreterEntryTrampoline
   fun:Builtins_InterpreterEntryTrampoline
   fun:Builtins_InterpreterEntryTrampoline
   fun:Builtins_InterpreterEntryTrampoline
   fun:Builtins_InterpreterEntryTrampoline
   fun:Builtins_JSEntryTrampoline
   fun:Builtins_JSEntry
   fun:_ZN2v88internal12_GLOBAL__N_16InvokeEPNS0_7IsolateERKNS1_12InvokeParamsE
   fun:_ZN2v88internal9Execution4CallEPNS0_7IsolateENS0_6HandleINS0_6ObjectEEES6_iPS6_
   fun:_ZN2v88Function4CallENS_5LocalINS_7ContextEEENS1_INS_5ValueEEEiPS5_
   fun:_ZN4node19ExecuteBootstrapperEPNS_11EnvironmentEPKcPSt6vectorIN2v85LocalINS5_6StringEEESaIS8_EEPS4_INS6_INS5_5ValueEEESaISD_EE
   fun:_ZN4nodeL14StartExecutionEPNS_11EnvironmentEPKc
   fun:_ZN4node14StartExecutionEPNS_11EnvironmentESt8functionIFN2v810MaybeLocalINS3_5ValueEEERKNS_26StartExecutionCallbackInfoEEE
   fun:_ZN4node15LoadEnvironmentEPNS_11EnvironmentESt8functionIFN2v810MaybeLocalINS3_5ValueEEERKNS_26StartExecutionCallbackInfoEEE
   fun:_ZN4node16NodeMainInstance3RunEv
   fun:_ZN4node5StartEiPPc
   fun:(below main)
}
{
   <insert_a_suppression_name_here>
   Memcheck:Leak
   match-leak-kinds: definite
   fun:_Znwm
   fun:InstanceAccessor
   fun:_ZN10ODBCCursor4InitEN4Napi3EnvENS0_6ObjectE
   fun:_Z7InitAllN4Napi3EnvENS_6ObjectE
   fun:operator()
   fun:WrapCallback<Napi::RegisterModule(napi_env, napi_value, Napi::ModuleRegisterCallback)::<lambda()> >
   fun:RegisterModule
   fun:_Z14__napi_InitAllP10napi_env__P12napi_value__
   fun:_Z30napi_module_register_by_symbolN2v85LocalINS_6ObjectEEENS0_INS_5ValueEEENS0_INS_7ContextEEEPFP12napi_value__P10napi_env__S8_E
   fun:_ZZN4node7binding6DLOpenERKN2v820FunctionCallbackInfoINS1_5ValueEEEENKUlPNS0_4DLibEE_clES8_
   fun:_ZN4node11Environment12TryLoadAddonEPKciRKSt8functionIFbPNS_7binding4DLibEEE
   fun:_ZN4node7binding6DLOpenERKN2v820FunctionCallbackInfoINS1_5ValueEEE
   fun:_ZN2v88internal12_GLOBAL__N_119HandleApiCallHelperILb0EEENS0_11MaybeHandleINS0_6ObjectEEEPNS0_7IsolateENS0_6HandleINS0_10HeapObjectEEESA_NS8_INS0_20FunctionTemplateInfoEEENS8_IS4_EENS0_16BuiltinArgumentsE
   fun:_ZN2v88internal21Builtin_HandleApiCallEiPmPNS0_7IsolateE
   fun:Builtins_CEntry_Return1_DontSaveFPRegs_ArgvOnStack_BuiltinExit
   fun:Builtins_InterpreterEntryTrampoline
   obj:*
   obj:*
   obj:*
   obj:*
   fun:Builtins_InterpreterEntryTrampoline
   fun:Builtins_InterpreterEntryTrampoline
   fun:Builtins_InterpreterEntryTrampoline
   fun:Builtins_InterpreterEntryTrampoline
   fun:Builtins_InterpreterEntryTrampoline
   fun:Builtins_InterpreterEntryTrampoline
   fun:Builtins_InterpreterEntryTrampoline
   fun:Builtins_InterpreterEntryTrampoline
   fun:Builtins_InterpreterEntryTrampoline
   fun:Builtins_InterpreterEntryTrampoline
   fun:Builtins_InterpreterEntryTrampoline
   fun:Builtins_InterpreterEntryTrampoline
   fun:Builtins_InterpreterEntryTrampoline
   fun:Builtins_InterpreterEntryTrampoline
   fun:Builtins_JSEntryTrampoline
   fun:Builtins_JSEntry
   fun:_ZN2v88internal12_GLOBAL__N_16InvokeEPNS0_7IsolateERKNS1_12InvokeParamsE
   fun:_ZN2v88internal9Execution4CallEPNS0_7IsolateENS0_6HandleINS0_6ObjectEEES6_iPS6_
   fun:_ZN2v88Function4CallENS_5LocalINS_7ContextEEENS1_INS_5ValueEEEiPS5_
   fun:_ZN4node19ExecuteBootstrapperEPNS_11EnvironmentEPKcPSt6vectorIN2v85LocalINS5_6StringEEESaIS8_EEPS4_INS6_INS5_5ValueEEESaISD_EE
   fun:_ZN4nodeL14StartExecutionEPNS_11EnvironmentEPKc
   fun:_ZN4node14StartExecutionEPNS_11EnvironmentESt8functionIFN2v810MaybeLocalINS3_5ValueEEERKNS_26StartExecutionCallbackInfoEEE
   fun:_ZN4node15LoadEnvironmentEPNS_11EnvironmentESt8functionIFN2v810MaybeLocalINS3_5ValueEEERKNS_26StartExecutionCallbackInfoEEE
   fun:_ZN4node16NodeMainInstance3RunEv
   fun:_ZN4node5StartEiPPc
   fun:(below main)
}
{
   <insert_a_suppression_name_here>
   Memcheck:Leak
   match-leak-kinds: reachable
   fun:_Znwm
   fun:_ZN2v88internal13MemoryReducer13ScheduleTimerEd
   fun:_ZN2v88internal4Heap28NotifyOldGenerationExpansionENS0_15AllocationSpaceEPNS0_11MemoryChunkE
   fun:_ZN2v88internal10PagedSpace20MergeCompactionSpaceEPNS0_15CompactionSpaceE
   fun:_ZN2v88internal9Scavenger8FinalizeEv
   fun:_ZN2v88internal18ScavengerCollector14CollectGarbageEv
   fun:_ZN2v88internal4Heap8ScavengeEv
   fun:_ZN2v88internal4Heap24PerformGarbageCollectionENS0_16GarbageCollectorENS_15GCCallbackFlagsE.constprop.1307
   fun:_ZN2v88internal4Heap14CollectGarbageENS0_15AllocationSpaceENS0_23GarbageCollectionReasonENS_15GCCallbackFlagsE
   fun:_ZN2v88internal4Heap34AllocateRawWithRetryOrFailSlowPathEiNS0_14AllocationTypeENS0_16AllocationOriginENS0_19AllocationAlignmentE
   fun:_ZN2v88internal7Factory29AllocateRawWithAllocationSiteENS0_6HandleINS0_3MapEEENS0_14AllocationTypeENS2_INS0_14AllocationSiteEEE
   fun:_ZN2v88internal7Factory18NewJSObjectFromMapENS0_6HandleINS0_3MapEEENS0_14AllocationTypeENS2_INS0_14AllocationSiteEEE
   fun:_ZN2v88internal7Factory32NewJSArrayWithUnverifiedElementsENS0_6HandleINS0_14FixedArrayBaseEEENS0_12ElementsKindEiNS0_14AllocationTypeE
   fun:_ZN2v88internal7Factory10NewJSArrayENS0_12ElementsKindEiiNS0_26ArrayStorageAllocationModeENS0_14AllocationTypeE
   fun:_ZN2v88internal16ElementsAccessor6ConcatEPNS0_7IsolateEPNS0_16BuiltinArgumentsEjj
   fun:_ZN2v88internal12_GLOBAL__N_116Fast_ArrayConcatEPNS0_7IsolateEPNS0_16BuiltinArgumentsE.part.83
   fun:_ZN2v88internal19Builtin_ArrayConcatEiPmPNS0_7IsolateE
   fun:Builtins_CEntry_Return1_DontSaveFPRegs_ArgvOnStack_BuiltinExit
   obj:*
   obj:*
   obj:*
   obj:*
   obj:*
   fun:Builtins_InterpreterEntryTrampoline
   obj:*
   fun:Builtins_InterpreterEntryTrampoline
   obj:*
   obj:*
   obj:*
   obj:*
   fun:Builtins_InterpreterEntryTrampoline
   obj:*
   fun:Builtins_InterpreterEntryTrampoline
   obj:*
   obj:*
   obj:*
   obj:*
   fun:Builtins_InterpreterEntryTrampoline
   obj:*
   fun:Builtins_InterpreterEntryTrampoline
   obj:*
   obj:*
   obj:*
   obj:*
   fun:Builtins_InterpreterEntryTrampoline
   obj:*
   fun:Builtins_InterpreterEntryTrampoline
   obj:*
   obj:*
   obj:*
   obj:*
   fun:Builtins_InterpreterEntryTrampoline
   fun:Builtins_InterpreterEntryTrampoline
   fun:Builtins_InterpreterEntryTrampoline
   fun:Builtins_InterpreterEntryTrampoline
   fun:Builtins_InterpreterEntryTrampoline
   fun:Builtins_InterpreterEntryTrampoline
   obj:*
   fun:Builtins_InterpreterEntryTrampoline
   fun:Builtins_InterpreterEntryTrampoline
   fun:Builtins_InterpreterEntryTrampoline
   fun:Builtins_InterpreterEntryTrampoline
   fun:Builtins_InterpreterEntryTrampoline
   fun:Builtins_InterpreterEntryTrampoline
   fun:Builtins_InterpreterEntryTrampoline
   fun:Builtins_InterpreterEntryTrampoline
   fun:Builtins_InterpreterEntryTrampoline
   fun:Builtins_InterpreterEntryTrampoline
   fun:Builtins_InterpreterEntryTrampoline
   fun:Builtins_InterpreterEntryTrampoline
   fun:Builtins_InterpreterEntryTrampoline
   fun:Builtins_InterpreterEntryTrampoline
   fun:Builtins_InterpreterEntryTrampoline
   fun:Builtins_InterpreterEntryTrampoline
   fun:Builtins_InterpreterEntryTrampoline
   fun:Builtins_InterpreterEntryTrampoline
   fun:Builtins_InterpreterEntryTrampoline
   fun:Builtins_InterpreterEntryTrampoline
   fun:Builtins_InterpreterEntryTrampoline
   fun:Builtins_JSEntryTrampoline
   fun:Builtins_JSEntry
   fun:_ZN2v88internal12_GLOBAL__N_16InvokeEPNS0_7IsolateERKNS1_12InvokeParamsE
   fun:_ZN2v88internal9Execution4CallEPNS0_7IsolateENS0_6HandleINS0_6ObjectEEES6_iPS6_
   fun:_ZN2v88Function4CallENS_5LocalINS_7ContextEEENS1_INS_5ValueEEEiPS5_
   fun:_ZN4node19ExecuteBootstrapperEPNS_11EnvironmentEPKcPSt6vectorIN2v85LocalINS5_6StringEEESaIS8_EEPS4_INS6_INS5_5ValueEEESaISD_EE
   fun:_ZN4nodeL14StartExecutionEPNS_11EnvironmentEPKc
   fun:_ZN4node14StartExecutionEPNS_11EnvironmentESt8functionIFN2v810MaybeLocalINS3_5ValueEEERKNS_26StartExecutionCallbackInfoEEE
   fun:_ZN4node15LoadEnvironmentEPNS_11EnvironmentESt8functionIFN2v810MaybeLocalINS3_5ValueEEERKNS_26StartExecutionCallbackInfoEEE
   fun:_ZN4node16NodeMainInstance3RunEv
   fun:_ZN4node5StartEiPPc
   fun:(below main)
}
{
   <insert_a_suppression_name_here>
   Memcheck:Leak
   match-leak-kinds: reachable
   fun:malloc
   fun:ucptrie_openFromBinary_71
   fun:_ZN6icu_7121LoadedNormalizer2Impl4loadEPKcS2_R10UErrorCode.part.1
   fun:_ZN6icu_7111Normalizer211getInstanceEPKcS2_19UNormalization2ModeR10UErrorCode
   fun:uidna_openUTS46_71
   fun:_ZN4node4i18n7ToASCIIEPNS_16MaybeStackBufferIcLm1024EEEPKcmNS0_9idna_modeE
   fun:_ZN4node4i18nL7ToASCIIERKN2v820FunctionCallbackInfoINS1_5ValueEEE
   fun:_ZN2v88internal12_GLOBAL__N_119HandleApiCallHelperILb0EEENS0_11MaybeHandleINS0_6ObjectEEEPNS0_7IsolateENS0_6HandleINS0_10HeapObjectEEESA_NS8_INS0_20FunctionTemplateInfoEEENS8_IS4_EENS0_16BuiltinArgumentsE
   fun:_ZN2v88internal21Builtin_HandleApiCallEiPmPNS0_7IsolateE
   fun:Builtins_CEntry_Return1_DontSaveFPRegs_ArgvOnStack_BuiltinExit
   fun:Builtins_InterpreterEntryTrampoline
   fun:Builtins_InterpreterEntryTrampoline
   fun:Builtins_InterpreterEntryTrampoline
   fun:Builtins_InterpreterEntryTrampoline
   fun:Builtins_InterpreterEntryTrampoline
   fun:Builtins_InterpreterEntryTrampoline
   fun:Builtins_InterpreterEntryTrampoline
   fun:Builtins_InterpreterEntryTrampoline
   fun:Builtins_InterpreterEntryTrampoline
   fun:Builtins_InterpreterEntryTrampoline
   fun:Builtins_InterpreterEntryTrampoline
   fun:Builtins_InterpreterEntryTrampoline
   fun:Builtins_InterpreterEntryTrampoline
   fun:Builtins_InterpreterEntryTrampoline
   fun:Builtins_InterpreterEntryTrampoline
   fun:Builtins_InterpreterEntryTrampoline
   fun:Builtins_InterpreterEntryTrampoline
   fun:Builtins_InterpreterEntryTrampoline
   fun:Builtins_JSEntryTrampoline
   fun:Builtins_JSEntry
   fun:_ZN2v88internal12_GLOBAL__N_16InvokeEPNS0_7IsolateERKNS1_12InvokeParamsE
   fun:_ZN2v88internal9Execution4CallEPNS0_7IsolateENS0_6HandleINS0_6ObjectEEES6_iPS6_
   fun:_ZN2v88Function4CallENS_5LocalINS_7ContextEEENS1_INS_5ValueEEEiPS5_
   fun:_ZN4node19ExecuteBootstrapperEPNS_11EnvironmentEPKcPSt6vectorIN2v85LocalINS5_6StringEEESaIS8_EEPS4_INS6_INS5_5ValueEEESaISD_EE
   fun:_ZN4nodeL14StartExecutionEPNS_11EnvironmentEPKc
   fun:_ZN4node14StartExecutionEPNS_11EnvironmentESt8functionIFN2v810MaybeLocalINS3_5ValueEEERKNS_26StartExecutionCallbackInfoEEE
   fun:_ZN4node15LoadEnvironmentEPNS_11EnvironmentESt8functionIFN2v810MaybeLocalINS3_5ValueEEERKNS_26StartExecutionCallbackInfoEEE
   fun:_ZN4node16NodeMainInstance3RunEv
   fun:_ZN4node5StartEiPPc
   fun:(below main)
}
{
   <insert_a_suppression_name_here>
   Memcheck:Leak
   match-leak-kinds: reachable
   fun:malloc
   fun:UDataMemory_createNewInstance_71
   fun:_ZL16setCommonICUDataP11UDataMemoryaP10UErrorCode
   fun:_ZL20doLoadFromCommonDataaPKcS0_S0_S0_S0_S0_S0_PFaPvS0_S0_PK9UDataInfoES1_P10UErrorCodeS8_.constprop.12
   fun:_ZL12doOpenChoicePKcS0_S0_PFaPvS0_S0_PK9UDataInfoES1_P10UErrorCode
   fun:res_load_71
   fun:_ZL10init_entryPKcS0_P10UErrorCode
   fun:_ZL15entryOpenDirectPKcS0_P10UErrorCode
   fun:ures_openDirectFillIn_71
   fun:_ZN6icu_718TimeZone16getTZDataVersionER10UErrorCode
   fun:_ZN4node8Metadata8Versions22InitializeIntlVersionsEv
   fun:_ZN4node22InitializeNodeWithArgsEPSt6vectorISsSaISsEES3_S3_NS_12ProcessFlags5FlagsE
   fun:_ZN4node24InitializeOncePerProcessEiPPcNS_27InitializationSettingsFlagsENS_12ProcessFlags5FlagsE
   fun:_ZN4node5StartEiPPc
   fun:(below main)
}
{
   <insert_a_suppression_name_here>
   Memcheck:Leak
   match-leak-kinds: reachable
   fun:malloc
   fun:UDataMemory_createNewInstance_71
   fun:_ZL20doLoadFromCommonDataaPKcS0_S0_S0_S0_S0_S0_PFaPvS0_S0_PK9UDataInfoES1_P10UErrorCodeS8_.constprop.12
   fun:_ZL12doOpenChoicePKcS0_S0_PFaPvS0_S0_PK9UDataInfoES1_P10UErrorCode
   fun:res_load_71
   fun:_ZL10init_entryPKcS0_P10UErrorCode
   fun:_ZL15entryOpenDirectPKcS0_P10UErrorCode
   fun:ures_openDirectFillIn_71
   fun:_ZN6icu_718TimeZone16getTZDataVersionER10UErrorCode
   fun:_ZN4node8Metadata8Versions22InitializeIntlVersionsEv
   fun:_ZN4node22InitializeNodeWithArgsEPSt6vectorISsSaISsEES3_S3_NS_12ProcessFlags5FlagsE
   fun:_ZN4node24InitializeOncePerProcessEiPPcNS_27InitializationSettingsFlagsENS_12ProcessFlags5FlagsE
   fun:_ZN4node5StartEiPPc
   fun:(below main)
}
{
   <insert_a_suppression_name_here>
   Memcheck:Leak
   match-leak-kinds: reachable
   fun:malloc
   fun:UDataMemory_createNewInstance_71
   fun:_ZL20doLoadFromCommonDataaPKcS0_S0_S0_S0_S0_S0_PFaPvS0_S0_PK9UDataInfoES1_P10UErrorCodeS8_.constprop.12
   fun:_ZL12doOpenChoicePKcS0_S0_PFaPvS0_S0_PK9UDataInfoES1_P10UErrorCode
   fun:res_load_71
   fun:_ZL10init_entryPKcS0_P10UErrorCode
   fun:_ZL15entryOpenDirectPKcS0_P10UErrorCode
   fun:ures_openDirect_71
   fun:ulocdata_getCLDRVersion_71
   fun:_ZN4node8Metadata8Versions22InitializeIntlVersionsEv
   fun:_ZN4node22InitializeNodeWithArgsEPSt6vectorISsSaISsEES3_S3_NS_12ProcessFlags5FlagsE
   fun:_ZN4node24InitializeOncePerProcessEiPPcNS_27InitializationSettingsFlagsENS_12ProcessFlags5FlagsE
   fun:_ZN4node5StartEiPPc
   fun:(below main)
}
{
   <insert_a_suppression_name_here>
   Memcheck:Leak
   match-leak-kinds: reachable
   fun:malloc
   fun:UDataMemory_createNewInstance_71
   fun:_ZL20doLoadFromCommonDataaPKcS0_S0_S0_S0_S0_S0_PFaPvS0_S0_PK9UDataInfoES1_P10UErrorCodeS8_.constprop.12
   fun:_ZL12doOpenChoicePKcS0_S0_PFaPvS0_S0_PK9UDataInfoES1_P10UErrorCode
   fun:_ZN6icu_7121LoadedNormalizer2Impl4loadEPKcS2_R10UErrorCode.part.1
   fun:_ZN6icu_7111Normalizer211getInstanceEPKcS2_19UNormalization2ModeR10UErrorCode
   fun:uidna_openUTS46_71
   fun:_ZN4node4i18n7ToASCIIEPNS_16MaybeStackBufferIcLm1024EEEPKcmNS0_9idna_modeE
   fun:_ZN4node4i18nL7ToASCIIERKN2v820FunctionCallbackInfoINS1_5ValueEEE
   fun:_ZN2v88internal12_GLOBAL__N_119HandleApiCallHelperILb0EEENS0_11MaybeHandleINS0_6ObjectEEEPNS0_7IsolateENS0_6HandleINS0_10HeapObjectEEESA_NS8_INS0_20FunctionTemplateInfoEEENS8_IS4_EENS0_16BuiltinArgumentsE
   fun:_ZN2v88internal21Builtin_HandleApiCallEiPmPNS0_7IsolateE
   fun:Builtins_CEntry_Return1_DontSaveFPRegs_ArgvOnStack_BuiltinExit
   fun:Builtins_InterpreterEntryTrampoline
   fun:Builtins_InterpreterEntryTrampoline
   fun:Builtins_InterpreterEntryTrampoline
   fun:Builtins_InterpreterEntryTrampoline
   fun:Builtins_InterpreterEntryTrampoline
   fun:Builtins_InterpreterEntryTrampoline
   fun:Builtins_InterpreterEntryTrampoline
   fun:Builtins_InterpreterEntryTrampoline
   fun:Builtins_InterpreterEntryTrampoline
   fun:Builtins_InterpreterEntryTrampoline
   fun:Builtins_InterpreterEntryTrampoline
   fun:Builtins_InterpreterEntryTrampoline
   fun:Builtins_InterpreterEntryTrampoline
   fun:Builtins_InterpreterEntryTrampoline
   fun:Builtins_InterpreterEntryTrampoline
   fun:Builtins_InterpreterEntryTrampoline
   fun:Builtins_InterpreterEntryTrampoline
   fun:Builtins_InterpreterEntryTrampoline
   fun:Builtins_JSEntryTrampoline
   fun:Builtins_JSEntry
   fun:_ZN2v88internal12_GLOBAL__N_16InvokeEPNS0_7IsolateERKNS1_12InvokeParamsE
   fun:_ZN2v88internal9Execution4CallEPNS0_7IsolateENS0_6HandleINS0_6ObjectEEES6_iPS6_
   fun:_ZN2v88Function4CallENS_5LocalINS_7ContextEEENS1_INS_5ValueEEEiPS5_
   fun:_ZN4node19ExecuteBootstrapperEPNS_11EnvironmentEPKcPSt6vectorIN2v85LocalINS5_6StringEEESaIS8_EEPS4_INS6_INS5_5ValueEEESaISD_EE
   fun:_ZN4nodeL14StartExecutionEPNS_11EnvironmentEPKc
   fun:_ZN4node14StartExecutionEPNS_11EnvironmentESt8functionIFN2v810MaybeLocalINS3_5ValueEEERKNS_26StartExecutionCallbackInfoEEE
   fun:_ZN4node15LoadEnvironmentEPNS_11EnvironmentESt8functionIFN2v810MaybeLocalINS3_5ValueEEERKNS_26StartExecutionCallbackInfoEEE
   fun:_ZN4node16NodeMainInstance3RunEv
   fun:_ZN4node5StartEiPPc
   fun:(below main)
}
{
   <insert_a_suppression_name_here>
   Memcheck:Leak
   match-leak-kinds: reachable
   fun:malloc
   fun:u_getTimeZoneFilesDirectory_71
   fun:_ZL12doOpenChoicePKcS0_S0_PFaPvS0_S0_PK9UDataInfoES1_P10UErrorCode
   fun:res_load_71
   fun:_ZL10init_entryPKcS0_P10UErrorCode
   fun:_ZL15entryOpenDirectPKcS0_P10UErrorCode
   fun:ures_openDirectFillIn_71
   fun:_ZN6icu_718TimeZone16getTZDataVersionER10UErrorCode
   fun:_ZN4node8Metadata8Versions22InitializeIntlVersionsEv
   fun:_ZN4node22InitializeNodeWithArgsEPSt6vectorISsSaISsEES3_S3_NS_12ProcessFlags5FlagsE
   fun:_ZN4node24InitializeOncePerProcessEiPPcNS_27InitializationSettingsFlagsENS_12ProcessFlags5FlagsE
   fun:_ZN4node5StartEiPPc
   fun:(below main)
}
{
   <insert_a_suppression_name_here>
   Memcheck:Leak
   match-leak-kinds: reachable
   fun:calloc
   fun:uv_loop_init
   fun:uv_default_loop
   fun:uv_default_loop
   fun:_ZN4node5StartEiPPc
   fun:(below main)
}
{
   <insert_a_suppression_name_here>
   Memcheck:Leak
   match-leak-kinds: reachable
   fun:_Znwm
   fun:_ZNSt11_Deque_baseISt10unique_ptrIN4node11DelayedTaskESt14default_deleteIS2_EESaIS5_EE17_M_initialize_mapEm
   fun:_ZN4node22PerIsolatePlatformData8ShutdownEv
   fun:_ZN4node12NodePlatform17UnregisterIsolateEPN2v87IsolateE
   fun:_ZN4node16NodeMainInstanceD1Ev
   fun:_ZN4node5StartEiPPc
   fun:(below main)
}
{
   <insert_a_suppression_name_here>
   Memcheck:Leak
   match-leak-kinds: reachable
   fun:_Znwm
   fun:_ZNSt11_Deque_baseISt10unique_ptrIN2v84TaskESt14default_deleteIS2_EESaIS5_EE17_M_initialize_mapEm
   fun:_ZN4node22PerIsolatePlatformData8ShutdownEv
   fun:_ZN4node12NodePlatform17UnregisterIsolateEPN2v87IsolateE
   fun:_ZN4node16NodeMainInstanceD1Ev
   fun:_ZN4node5StartEiPPc
   fun:(below main)
}
{
   <insert_a_suppression_name_here>
   Memcheck:Leak
   match-leak-kinds: definite
   fun:_Znwm
   fun:napi_module_register
   fun:call_init.part.0
   fun:call_init
   fun:_dl_init
   fun:_dl_catch_exception
   fun:dl_open_worker
   fun:_dl_catch_exception
   fun:_dl_open
   fun:dlopen_doit
   fun:_dl_catch_exception
   fun:_dl_catch_error
   fun:_dlerror_run
   fun:dlopen@@GLIBC_2.2.5
   fun:_ZZN4node7binding6DLOpenERKN2v820FunctionCallbackInfoINS1_5ValueEEEENKUlPNS0_4DLibEE_clES8_
   fun:_ZN4node11Environment12TryLoadAddonEPKciRKSt8functionIFbPNS_7binding4DLibEEE
   fun:_ZN4node7binding6DLOpenERKN2v820FunctionCallbackInfoINS1_5ValueEEE
   fun:_ZN2v88internal12_GLOBAL__N_119HandleApiCallHelperILb0EEENS0_11MaybeHandleINS0_6ObjectEEEPNS0_7IsolateENS0_6HandleINS0_10HeapObjectEEESA_NS8_INS0_20FunctionTemplateInfoEEENS8_IS4_EENS0_16BuiltinArgumentsE
   fun:_ZN2v88internal21Builtin_HandleApiCallEiPmPNS0_7IsolateE
   fun:Builtins_CEntry_Return1_DontSaveFPRegs_ArgvOnStack_BuiltinExit
   fun:Builtins_InterpreterEntryTrampoline
   obj:*
   obj:*
   obj:*
   obj:*
   fun:Builtins_InterpreterEntryTrampoline
   fun:Builtins_InterpreterEntryTrampoline
   fun:Builtins_InterpreterEntryTrampoline
   fun:Builtins_InterpreterEntryTrampoline
   fun:Builtins_InterpreterEntryTrampoline
   fun:Builtins_InterpreterEntryTrampoline
   fun:Builtins_InterpreterEntryTrampoline
   fun:Builtins_InterpreterEntryTrampoline
   fun:Builtins_InterpreterEntryTrampoline
   fun:Builtins_InterpreterEntryTrampoline
   fun:Builtins_InterpreterEntryTrampoline
   fun:Builtins_InterpreterEntryTrampoline
   fun:Builtins_InterpreterEntryTrampoline
   fun:Builtins_InterpreterEntryTrampoline
   fun:Builtins_JSEntryTrampoline
   fun:Builtins_JSEntry
   fun:_ZN2v88internal12_GLOBAL__N_16InvokeEPNS0_7IsolateERKNS1_12InvokeParamsE
   fun:_ZN2v88internal9Execution4CallEPNS0_7IsolateENS0_6HandleINS0_6ObjectEEES6_iPS6_
   fun:_ZN2v88Function4CallENS_5LocalINS_7ContextEEENS1_INS_5ValueEEEiPS5_
   fun:_ZN4node19ExecuteBootstrapperEPNS_11EnvironmentEPKcPSt6vectorIN2v85LocalINS5_6StringEEESaIS8_EEPS4_INS6_INS5_5ValueEEESaISD_EE
   fun:_ZN4nodeL14StartExecutionEPNS_11EnvironmentEPKc
   fun:_ZN4node14StartExecutionEPNS_11EnvironmentESt8functionIFN2v810MaybeLocalINS3_5ValueEEERKNS_26StartExecutionCallbackInfoEEE
   fun:_ZN4node15LoadEnvironmentEPNS_11EnvironmentESt8functionIFN2v810MaybeLocalINS3_5ValueEEERKNS_26StartExecutionCallbackInfoEEE
   fun:_ZN4node16NodeMainInstance3RunEv
   fun:_ZN4node5StartEiPPc
   fun:(below main)
}
{
   <insert_a_suppression_name_here>
   Memcheck:Leak
   match-leak-kinds: reachable
   fun:malloc
   fun:uhash_open_71
   fun:_ZL15entryOpenDirectPKcS0_P10UErrorCode
   fun:ures_openDirectFillIn_71
   fun:_ZN6icu_718TimeZone16getTZDataVersionER10UErrorCode
   fun:_ZN4node8Metadata8Versions22InitializeIntlVersionsEv
   fun:_ZN4node22InitializeNodeWithArgsEPSt6vectorISsSaISsEES3_S3_NS_12ProcessFlags5FlagsE
   fun:_ZN4node24InitializeOncePerProcessEiPPcNS_27InitializationSettingsFlagsENS_12ProcessFlags5FlagsE
   fun:_ZN4node5StartEiPPc
   fun:(below main)
}
{
   <insert_a_suppression_name_here>
   Memcheck:Leak
   match-leak-kinds: reachable
   fun:malloc
   fun:uhash_open_71
   fun:_ZN6icu_7111Normalizer211getInstanceEPKcS2_19UNormalization2ModeR10UErrorCode
   fun:uidna_openUTS46_71
   fun:_ZN4node4i18n7ToASCIIEPNS_16MaybeStackBufferIcLm1024EEEPKcmNS0_9idna_modeE
   fun:_ZN4node4i18nL7ToASCIIERKN2v820FunctionCallbackInfoINS1_5ValueEEE
   fun:_ZN2v88internal12_GLOBAL__N_119HandleApiCallHelperILb0EEENS0_11MaybeHandleINS0_6ObjectEEEPNS0_7IsolateENS0_6HandleINS0_10HeapObjectEEESA_NS8_INS0_20FunctionTemplateInfoEEENS8_IS4_EENS0_16BuiltinArgumentsE
   fun:_ZN2v88internal21Builtin_HandleApiCallEiPmPNS0_7IsolateE
   fun:Builtins_CEntry_Return1_DontSaveFPRegs_ArgvOnStack_BuiltinExit
   fun:Builtins_InterpreterEntryTrampoline
   fun:Builtins_InterpreterEntryTrampoline
   fun:Builtins_InterpreterEntryTrampoline
   fun:Builtins_InterpreterEntryTrampoline
   fun:Builtins_InterpreterEntryTrampoline
   fun:Builtins_InterpreterEntryTrampoline
   fun:Builtins_InterpreterEntryTrampoline
   fun:Builtins_InterpreterEntryTrampoline
   fun:Builtins_InterpreterEntryTrampoline
   fun:Builtins_InterpreterEntryTrampoline
   fun:Builtins_InterpreterEntryTrampoline
   fun:Builtins_InterpreterEntryTrampoline
   fun:Builtins_InterpreterEntryTrampoline
   fun:Builtins_InterpreterEntryTrampoline
   fun:Builtins_InterpreterEntryTrampoline
   fun:Builtins_InterpreterEntryTrampoline
   fun:Builtins_InterpreterEntryTrampoline
   fun:Builtins_InterpreterEntryTrampoline
   fun:Builtins_JSEntryTrampoline
   fun:Builtins_JSEntry
   fun:_ZN2v88internal12_GLOBAL__N_16InvokeEPNS0_7IsolateERKNS1_12InvokeParamsE
   fun:_ZN2v88internal9Execution4CallEPNS0_7IsolateENS0_6HandleINS0_6ObjectEEES6_iPS6_
   fun:_ZN2v88Function4CallENS_5LocalINS_7ContextEEENS1_INS_5ValueEEEiPS5_
   fun:_ZN4node19ExecuteBootstrapperEPNS_11EnvironmentEPKcPSt6vectorIN2v85LocalINS5_6StringEEESaIS8_EEPS4_INS6_INS5_5ValueEEESaISD_EE
   fun:_ZN4nodeL14StartExecutionEPNS_11EnvironmentEPKc
   fun:_ZN4node14StartExecutionEPNS_11EnvironmentESt8functionIFN2v810MaybeLocalINS3_5ValueEEERKNS_26StartExecutionCallbackInfoEEE
   fun:_ZN4node15LoadEnvironmentEPNS_11EnvironmentESt8functionIFN2v810MaybeLocalINS3_5ValueEEERKNS_26StartExecutionCallbackInfoEEE
   fun:_ZN4node16NodeMainInstance3RunEv
   fun:_ZN4node5StartEiPPc
   fun:(below main)
}
{
   <insert_a_suppression_name_here>
   Memcheck:Leak
   match-leak-kinds: reachable
   fun:malloc
   fun:_ZN6icu_7113Norm2AllModes14createInstanceEPNS_15Normalizer2ImplER10UErrorCode
   fun:_ZN6icu_7111Normalizer211getInstanceEPKcS2_19UNormalization2ModeR10UErrorCode
   fun:uidna_openUTS46_71
   fun:_ZN4node4i18n7ToASCIIEPNS_16MaybeStackBufferIcLm1024EEEPKcmNS0_9idna_modeE
   fun:_ZN4node4i18nL7ToASCIIERKN2v820FunctionCallbackInfoINS1_5ValueEEE
   fun:_ZN2v88internal12_GLOBAL__N_119HandleApiCallHelperILb0EEENS0_11MaybeHandleINS0_6ObjectEEEPNS0_7IsolateENS0_6HandleINS0_10HeapObjectEEESA_NS8_INS0_20FunctionTemplateInfoEEENS8_IS4_EENS0_16BuiltinArgumentsE
   fun:_ZN2v88internal21Builtin_HandleApiCallEiPmPNS0_7IsolateE
   fun:Builtins_CEntry_Return1_DontSaveFPRegs_ArgvOnStack_BuiltinExit
   fun:Builtins_InterpreterEntryTrampoline
   fun:Builtins_InterpreterEntryTrampoline
   fun:Builtins_InterpreterEntryTrampoline
   fun:Builtins_InterpreterEntryTrampoline
   fun:Builtins_InterpreterEntryTrampoline
   fun:Builtins_InterpreterEntryTrampoline
   fun:Builtins_InterpreterEntryTrampoline
   fun:Builtins_InterpreterEntryTrampoline
   fun:Builtins_InterpreterEntryTrampoline
   fun:Builtins_InterpreterEntryTrampoline
   fun:Builtins_InterpreterEntryTrampoline
   fun:Builtins_InterpreterEntryTrampoline
   fun:Builtins_InterpreterEntryTrampoline
   fun:Builtins_InterpreterEntryTrampoline
   fun:Builtins_InterpreterEntryTrampoline
   fun:Builtins_InterpreterEntryTrampoline
   fun:Builtins_InterpreterEntryTrampoline
   fun:Builtins_InterpreterEntryTrampoline
   fun:Builtins_JSEntryTrampoline
   fun:Builtins_JSEntry
   fun:_ZN2v88internal12_GLOBAL__N_16InvokeEPNS0_7IsolateERKNS1_12InvokeParamsE
   fun:_ZN2v88internal9Execution4CallEPNS0_7IsolateENS0_6HandleINS0_6ObjectEEES6_iPS6_
   fun:_ZN2v88Function4CallENS_5LocalINS_7ContextEEENS1_INS_5ValueEEEiPS5_
   fun:_ZN4node19ExecuteBootstrapperEPNS_11EnvironmentEPKcPSt6vectorIN2v85LocalINS5_6StringEEESaIS8_EEPS4_INS6_INS5_5ValueEEESaISD_EE
   fun:_ZN4nodeL14StartExecutionEPNS_11EnvironmentEPKc
   fun:_ZN4node14StartExecutionEPNS_11EnvironmentESt8functionIFN2v810MaybeLocalINS3_5ValueEEERKNS_26StartExecutionCallbackInfoEEE
   fun:_ZN4node15LoadEnvironmentEPNS_11EnvironmentESt8functionIFN2v810MaybeLocalINS3_5ValueEEERKNS_26StartExecutionCallbackInfoEEE
   fun:_ZN4node16NodeMainInstance3RunEv
   fun:_ZN4node5StartEiPPc
   fun:(below main)
}
{
   <insert_a_suppression_name_here>
   Memcheck:Leak
   match-leak-kinds: reachable
   fun:malloc
   fun:strdup
   fun:_dl_map_object
   fun:dl_open_worker
   fun:_dl_catch_exception
   fun:_dl_open
   fun:dlopen_doit
   fun:_dl_catch_exception
   fun:_dl_catch_error
   fun:_dlerror_run
   fun:dlopen@@GLIBC_2.2.5
   fun:_ZZN4node7binding6DLOpenERKN2v820FunctionCallbackInfoINS1_5ValueEEEENKUlPNS0_4DLibEE_clES8_
   fun:_ZN4node11Environment12TryLoadAddonEPKciRKSt8functionIFbPNS_7binding4DLibEEE
   fun:_ZN4node7binding6DLOpenERKN2v820FunctionCallbackInfoINS1_5ValueEEE
   fun:_ZN2v88internal12_GLOBAL__N_119HandleApiCallHelperILb0EEENS0_11MaybeHandleINS0_6ObjectEEEPNS0_7IsolateENS0_6HandleINS0_10HeapObjectEEESA_NS8_INS0_20FunctionTemplateInfoEEENS8_IS4_EENS0_16BuiltinArgumentsE
   fun:_ZN2v88internal21Builtin_HandleApiCallEiPmPNS0_7IsolateE
   fun:Builtins_CEntry_Return1_DontSaveFPRegs_ArgvOnStack_BuiltinExit
   fun:Builtins_InterpreterEntryTrampoline
   obj:*
   obj:*
   obj:*
   obj:*
   fun:Builtins_InterpreterEntryTrampoline
   fun:Builtins_InterpreterEntryTrampoline
   fun:Builtins_InterpreterEntryTrampoline
   fun:Builtins_InterpreterEntryTrampoline
   fun:Builtins_InterpreterEntryTrampoline
   fun:Builtins_InterpreterEntryTrampoline
   fun:Builtins_InterpreterEntryTrampoline
   fun:Builtins_InterpreterEntryTrampoline
   fun:Builtins_InterpreterEntryTrampoline
   fun:Builtins_InterpreterEntryTrampoline
   fun:Builtins_InterpreterEntryTrampoline
   fun:Builtins_InterpreterEntryTrampoline
   fun:Builtins_InterpreterEntryTrampoline
   fun:Builtins_InterpreterEntryTrampoline
   fun:Builtins_JSEntryTrampoline
   fun:Builtins_JSEntry
   fun:_ZN2v88internal12_GLOBAL__N_16InvokeEPNS0_7IsolateERKNS1_12InvokeParamsE
   fun:_ZN2v88internal9Execution4CallEPNS0_7IsolateENS0_6HandleINS0_6ObjectEEES6_iPS6_
   fun:_ZN2v88Function4CallENS_5LocalINS_7ContextEEENS1_INS_5ValueEEEiPS5_
   fun:_ZN4node19ExecuteBootstrapperEPNS_11EnvironmentEPKcPSt6vectorIN2v85LocalINS5_6StringEEESaIS8_EEPS4_INS6_INS5_5ValueEEESaISD_EE
   fun:_ZN4nodeL14StartExecutionEPNS_11EnvironmentEPKc
   fun:_ZN4node14StartExecutionEPNS_11EnvironmentESt8functionIFN2v810MaybeLocalINS3_5ValueEEERKNS_26StartExecutionCallbackInfoEEE
   fun:_ZN4node15LoadEnvironmentEPNS_11EnvironmentESt8functionIFN2v810MaybeLocalINS3_5ValueEEERKNS_26StartExecutionCallbackInfoEEE
   fun:_ZN4node16NodeMainInstance3RunEv
   fun:_ZN4node5StartEiPPc
   fun:(below main)
}
{
   <insert_a_suppression_name_here>
   Memcheck:Leak
   match-leak-kinds: reachable
   fun:malloc
   fun:_dl_new_object
   fun:_dl_map_object_from_fd
   fun:_dl_map_object
   fun:dl_open_worker
   fun:_dl_catch_exception
   fun:_dl_open
   fun:dlopen_doit
   fun:_dl_catch_exception
   fun:_dl_catch_error
   fun:_dlerror_run
   fun:dlopen@@GLIBC_2.2.5
   fun:_ZZN4node7binding6DLOpenERKN2v820FunctionCallbackInfoINS1_5ValueEEEENKUlPNS0_4DLibEE_clES8_
   fun:_ZN4node11Environment12TryLoadAddonEPKciRKSt8functionIFbPNS_7binding4DLibEEE
   fun:_ZN4node7binding6DLOpenERKN2v820FunctionCallbackInfoINS1_5ValueEEE
   fun:_ZN2v88internal12_GLOBAL__N_119HandleApiCallHelperILb0EEENS0_11MaybeHandleINS0_6ObjectEEEPNS0_7IsolateENS0_6HandleINS0_10HeapObjectEEESA_NS8_INS0_20FunctionTemplateInfoEEENS8_IS4_EENS0_16BuiltinArgumentsE
   fun:_ZN2v88internal21Builtin_HandleApiCallEiPmPNS0_7IsolateE
   fun:Builtins_CEntry_Return1_DontSaveFPRegs_ArgvOnStack_BuiltinExit
   fun:Builtins_InterpreterEntryTrampoline
   obj:*
   obj:*
   obj:*
   obj:*
   fun:Builtins_InterpreterEntryTrampoline
   fun:Builtins_InterpreterEntryTrampoline
   fun:Builtins_InterpreterEntryTrampoline
   fun:Builtins_InterpreterEntryTrampoline
   fun:Builtins_InterpreterEntryTrampoline
   fun:Builtins_InterpreterEntryTrampoline
   fun:Builtins_InterpreterEntryTrampoline
   fun:Builtins_InterpreterEntryTrampoline
   fun:Builtins_InterpreterEntryTrampoline
   fun:Builtins_InterpreterEntryTrampoline
   fun:Builtins_InterpreterEntryTrampoline
   fun:Builtins_InterpreterEntryTrampoline
   fun:Builtins_InterpreterEntryTrampoline
   fun:Builtins_InterpreterEntryTrampoline
   fun:Builtins_JSEntryTrampoline
   fun:Builtins_JSEntry
   fun:_ZN2v88internal12_GLOBAL__N_16InvokeEPNS0_7IsolateERKNS1_12InvokeParamsE
   fun:_ZN2v88internal9Execution4CallEPNS0_7IsolateENS0_6HandleINS0_6ObjectEEES6_iPS6_
   fun:_ZN2v88Function4CallENS_5LocalINS_7ContextEEENS1_INS_5ValueEEEiPS5_
   fun:_ZN4node19ExecuteBootstrapperEPNS_11EnvironmentEPKcPSt6vectorIN2v85LocalINS5_6StringEEESaIS8_EEPS4_INS6_INS5_5ValueEEESaISD_EE
   fun:_ZN4nodeL14StartExecutionEPNS_11EnvironmentEPKc
   fun:_ZN4node14StartExecutionEPNS_11EnvironmentESt8functionIFN2v810MaybeLocalINS3_5ValueEEERKNS_26StartExecutionCallbackInfoEEE
   fun:_ZN4node15LoadEnvironmentEPNS_11EnvironmentESt8functionIFN2v810MaybeLocalINS3_5ValueEEERKNS_26StartExecutionCallbackInfoEEE
   fun:_ZN4node16NodeMainInstance3RunEv
   fun:_ZN4node5StartEiPPc
   fun:(below main)
}
{
   <insert_a_suppression_name_here>
   Memcheck:Leak
   match-leak-kinds: reachable
   fun:malloc
   fun:_ZN6icu_7111Normalizer211getInstanceEPKcS2_19UNormalization2ModeR10UErrorCode
   fun:uidna_openUTS46_71
   fun:_ZN4node4i18n7ToASCIIEPNS_16MaybeStackBufferIcLm1024EEEPKcmNS0_9idna_modeE
   fun:_ZN4node4i18nL7ToASCIIERKN2v820FunctionCallbackInfoINS1_5ValueEEE
   fun:_ZN2v88internal12_GLOBAL__N_119HandleApiCallHelperILb0EEENS0_11MaybeHandleINS0_6ObjectEEEPNS0_7IsolateENS0_6HandleINS0_10HeapObjectEEESA_NS8_INS0_20FunctionTemplateInfoEEENS8_IS4_EENS0_16BuiltinArgumentsE
   fun:_ZN2v88internal21Builtin_HandleApiCallEiPmPNS0_7IsolateE
   fun:Builtins_CEntry_Return1_DontSaveFPRegs_ArgvOnStack_BuiltinExit
   fun:Builtins_InterpreterEntryTrampoline
   fun:Builtins_InterpreterEntryTrampoline
   fun:Builtins_InterpreterEntryTrampoline
   fun:Builtins_InterpreterEntryTrampoline
   fun:Builtins_InterpreterEntryTrampoline
   fun:Builtins_InterpreterEntryTrampoline
   fun:Builtins_InterpreterEntryTrampoline
   fun:Builtins_InterpreterEntryTrampoline
   fun:Builtins_InterpreterEntryTrampoline
   fun:Builtins_InterpreterEntryTrampoline
   fun:Builtins_InterpreterEntryTrampoline
   fun:Builtins_InterpreterEntryTrampoline
   fun:Builtins_InterpreterEntryTrampoline
   fun:Builtins_InterpreterEntryTrampoline
   fun:Builtins_InterpreterEntryTrampoline
   fun:Builtins_InterpreterEntryTrampoline
   fun:Builtins_InterpreterEntryTrampoline
   fun:Builtins_InterpreterEntryTrampoline
   fun:Builtins_JSEntryTrampoline
   fun:Builtins_JSEntry
   fun:_ZN2v88internal12_GLOBAL__N_16InvokeEPNS0_7IsolateERKNS1_12InvokeParamsE
   fun:_ZN2v88internal9Execution4CallEPNS0_7IsolateENS0_6HandleINS0_6ObjectEEES6_iPS6_
   fun:_ZN2v88Function4CallENS_5LocalINS_7ContextEEENS1_INS_5ValueEEEiPS5_
   fun:_ZN4node19ExecuteBootstrapperEPNS_11EnvironmentEPKcPSt6vectorIN2v85LocalINS5_6StringEEESaIS8_EEPS4_INS6_INS5_5ValueEEESaISD_EE
   fun:_ZN4nodeL14StartExecutionEPNS_11EnvironmentEPKc
   fun:_ZN4node14StartExecutionEPNS_11EnvironmentESt8functionIFN2v810MaybeLocalINS3_5ValueEEERKNS_26StartExecutionCallbackInfoEEE
   fun:_ZN4node15LoadEnvironmentEPNS_11EnvironmentESt8functionIFN2v810MaybeLocalINS3_5ValueEEERKNS_26StartExecutionCallbackInfoEEE
   fun:_ZN4node16NodeMainInstance3RunEv
   fun:_ZN4node5StartEiPPc
   fun:(below main)
}
{
   <insert_a_suppression_name_here>
   Memcheck:Leak
   match-leak-kinds: reachable
   fun:_Znwm
   fun:_ZNSt10_HashtableImSt4pairIKmSt6vectorImSaImEEESaIS5_ENSt8__detail10_Select1stESt8equal_toImESt4hashImENS7_18_Mod_range_hashingENS7_20_Default_ranged_hashENS7_20_Prime_rehash_policyENS7_17_Hashtable_traitsILb0ELb0ELb1EEEE21_M_insert_unique_nodeEmmPNS7_10_Hash_nodeIS5_Lb0EEEm
   fun:_ZN2v88internal20CodeRangeAddressHint20NotifyFreedCodeRangeEmm
   fun:_ZNSt23_Sp_counted_ptr_inplaceIN2v88internal9CodeRangeESaIS2_ELN9__gnu_cxx12_Lock_policyE2EE10_M_disposeEv
   fun:_ZN2v88internal4HeapD1Ev
   fun:_ZN2v88internal7IsolateD1Ev
   fun:_ZN2v88internal7Isolate6DeleteEPS1_
   fun:_ZN4node16NodeMainInstanceD1Ev
   fun:_ZN4node5StartEiPPc
   fun:(below main)
}
{
   <insert_a_suppression_name_here>
   Memcheck:Leak
   match-leak-kinds: reachable
   fun:malloc
   fun:_ZL10init_entryPKcS0_P10UErrorCode
   fun:_ZL15entryOpenDirectPKcS0_P10UErrorCode
   fun:ures_openDirectFillIn_71
   fun:_ZN6icu_718TimeZone16getTZDataVersionER10UErrorCode
   fun:_ZN4node8Metadata8Versions22InitializeIntlVersionsEv
   fun:_ZN4node22InitializeNodeWithArgsEPSt6vectorISsSaISsEES3_S3_NS_12ProcessFlags5FlagsE
   fun:_ZN4node24InitializeOncePerProcessEiPPcNS_27InitializationSettingsFlagsENS_12ProcessFlags5FlagsE
   fun:_ZN4node5StartEiPPc
   fun:(below main)
}
{
   <insert_a_suppression_name_here>
   Memcheck:Leak
   match-leak-kinds: reachable
   fun:malloc
   fun:_ZL10init_entryPKcS0_P10UErrorCode
   fun:_ZL15entryOpenDirectPKcS0_P10UErrorCode
   fun:ures_openDirect_71
   fun:ulocdata_getCLDRVersion_71
   fun:_ZN4node8Metadata8Versions22InitializeIntlVersionsEv
   fun:_ZN4node22InitializeNodeWithArgsEPSt6vectorISsSaISsEES3_S3_NS_12ProcessFlags5FlagsE
   fun:_ZN4node24InitializeOncePerProcessEiPPcNS_27InitializationSettingsFlagsENS_12ProcessFlags5FlagsE
   fun:_ZN4node5StartEiPPc
   fun:(below main)
}
{
   <insert_a_suppression_name_here>
   Memcheck:Leak
   match-leak-kinds: reachable
   fun:_Znwm
   fun:_ZN4node22PerIsolatePlatformDataC1EPN2v87IsolateEP9uv_loop_s
   fun:_ZN4node12NodePlatform15RegisterIsolateEPN2v87IsolateEP9uv_loop_s
   fun:_ZN4node16NodeMainInstanceC1EPKNS_12SnapshotDataEP9uv_loop_sPNS_20MultiIsolatePlatformERKSt6vectorISsSaISsEESC_
   fun:_ZN4node5StartEiPPc
   fun:(below main)
}
{
   <insert_a_suppression_name_here>
   Memcheck:Leak
   match-leak-kinds: reachable
   fun:realloc
   fun:_ZN6icu_7110UnicodeSet7compactEv
   fun:_ZN6icu_7110UnicodeSet6freezeEv
   fun:_ZN2v88internal14BuildIgnoreSetEv
   fun:_ZN2v84base16LazyInstanceImplINS_8internal13IgnoreSetDataENS0_32StaticallyAllocatedInstanceTraitIS3_EENS0_21DefaultConstructTraitIS3_EENS0_23ThreadSafeInitOnceTraitENS0_18LeakyInstanceTraitIS3_EEE12InitInstanceEPv
   fun:_ZN2v84base12CallOnceImplEPSt6atomicIhESt8functionIFvvEE
   fun:_ZN2v88internal17RegExpCaseFolding9IgnoreSetEv
   fun:_ZN2v88internalL25GetCaseIndependentLettersEPNS0_7IsolateEtbPji.constprop.234
   fun:_ZN2v88internal8TextNode12TextEmitPassEPNS0_14RegExpCompilerENS1_16TextEmitPassTypeEbPNS0_5TraceEbPi
   fun:_ZN2v88internal8TextNode4EmitEPNS0_14RegExpCompilerEPNS0_5TraceE
   fun:_ZN2v88internal13AssertionNode4EmitEPNS0_14RegExpCompilerEPNS0_5TraceE
   fun:_ZN2v88internal10ActionNode4EmitEPNS0_14RegExpCompilerEPNS0_5TraceE
   fun:_ZN2v88internal14RegExpCompiler8AssembleEPNS0_7IsolateEPNS0_20RegExpMacroAssemblerEPNS0_10RegExpNodeEiNS0_6HandleINS0_6StringEEE
   fun:_ZN2v88internal10RegExpImpl7CompileEPNS0_7IsolateEPNS0_4ZoneEPNS0_17RegExpCompileDataENS_4base5FlagsINS0_8JSRegExp4FlagEiEENS0_6HandleINS0_6StringEEESF_bRj
   fun:_ZN2v88internal10RegExpImpl15CompileIrregexpEPNS0_7IsolateENS0_6HandleINS0_8JSRegExpEEENS4_INS0_6StringEEEb
   fun:_ZN2v88internal10RegExpImpl15IrregexpPrepareEPNS0_7IsolateENS0_6HandleINS0_8JSRegExpEEENS4_INS0_6StringEEE
   fun:_ZN2v88internal10RegExpImpl12IrregexpExecEPNS0_7IsolateENS0_6HandleINS0_8JSRegExpEEENS4_INS0_6StringEEEiNS4_INS0_15RegExpMatchInfoEEENS0_6RegExp10ExecQuirksE
   fun:_ZN2v88internal18Runtime_RegExpExecEiPmPNS0_7IsolateE
   fun:Builtins_CEntry_Return1_DontSaveFPRegs_ArgvOnStack_NoBuiltinExit
   fun:Builtins_RegExpPrototypeTest
   fun:Builtins_InterpreterEntryTrampoline
   obj:*
   fun:Builtins_InterpreterEntryTrampoline
   obj:*
   obj:*
   obj:*
   obj:*
   fun:Builtins_InterpreterEntryTrampoline
   obj:*
   fun:Builtins_InterpreterEntryTrampoline
   obj:*
   obj:*
   obj:*
   obj:*
   fun:Builtins_InterpreterEntryTrampoline
   fun:Builtins_InterpreterEntryTrampoline
   fun:Builtins_InterpreterEntryTrampoline
   fun:Builtins_InterpreterEntryTrampoline
   fun:Builtins_InterpreterEntryTrampoline
   fun:Builtins_InterpreterEntryTrampoline
   obj:*
   fun:Builtins_InterpreterEntryTrampoline
   fun:Builtins_InterpreterEntryTrampoline
   fun:Builtins_InterpreterEntryTrampoline
   fun:Builtins_InterpreterEntryTrampoline
   fun:Builtins_InterpreterEntryTrampoline
   fun:Builtins_InterpreterEntryTrampoline
   fun:Builtins_InterpreterEntryTrampoline
   fun:Builtins_InterpreterEntryTrampoline
   fun:Builtins_InterpreterEntryTrampoline
   fun:Builtins_InterpreterEntryTrampoline
   fun:Builtins_InterpreterEntryTrampoline
   fun:Builtins_InterpreterEntryTrampoline
   fun:Builtins_InterpreterEntryTrampoline
   fun:Builtins_InterpreterEntryTrampoline
   fun:Builtins_InterpreterEntryTrampoline
   fun:Builtins_InterpreterEntryTrampoline
   fun:Builtins_InterpreterEntryTrampoline
   fun:Builtins_InterpreterEntryTrampoline
   fun:Builtins_InterpreterEntryTrampoline
   fun:Builtins_InterpreterEntryTrampoline
   fun:Builtins_InterpreterEntryTrampoline
   fun:Builtins_JSEntryTrampoline
   fun:Builtins_JSEntry
   fun:_ZN2v88internal12_GLOBAL__N_16InvokeEPNS0_7IsolateERKNS1_12InvokeParamsE
   fun:_ZN2v88internal9Execution4CallEPNS0_7IsolateENS0_6HandleINS0_6ObjectEEES6_iPS6_
   fun:_ZN2v88Function4CallENS_5LocalINS_7ContextEEENS1_INS_5ValueEEEiPS5_
   fun:_ZN4node19ExecuteBootstrapperEPNS_11EnvironmentEPKcPSt6vectorIN2v85LocalINS5_6StringEEESaIS8_EEPS4_INS6_INS5_5ValueEEESaISD_EE
   fun:_ZN4nodeL14StartExecutionEPNS_11EnvironmentEPKc
   fun:_ZN4node14StartExecutionEPNS_11EnvironmentESt8functionIFN2v810MaybeLocalINS3_5ValueEEERKNS_26StartExecutionCallbackInfoEEE
   fun:_ZN4node15LoadEnvironmentEPNS_11EnvironmentESt8functionIFN2v810MaybeLocalINS3_5ValueEEERKNS_26StartExecutionCallbackInfoEEE
   fun:_ZN4node16NodeMainInstance3RunEv
   fun:_ZN4node5StartEiPPc
   fun:(below main)
}
{
   <insert_a_suppression_name_here>
   Memcheck:Leak
   match-leak-kinds: reachable
   fun:malloc
   obj:/usr/lib/x86_64-linux-gnu/libodbc.so.2.0.0
   obj:/usr/lib/x86_64-linux-gnu/libodbc.so.2.0.0
   obj:/usr/lib/x86_64-linux-gnu/libodbc.so.2.0.0
   obj:/usr/lib/x86_64-linux-gnu/libodbc.so.2.0.0
   fun:SQLDriverConnect
   fun:_ZN18ConnectAsyncWorker7ExecuteEv
   fun:worker
   fun:start_thread
   fun:clone
}
{
   <insert_a_suppression_name_here>
   Memcheck:Leak
   match-leak-kinds: reachable
   fun:malloc
   obj:/usr/lib/x86_64-linux-gnu/libodbc.so.2.0.0
   obj:/usr/lib/x86_64-linux-gnu/libodbc.so.2.0.0
   obj:/usr/lib/x86_64-linux-gnu/libodbc.so.2.0.0
   obj:/usr/lib/x86_64-linux-gnu/libodbc.so.2.0.0
   fun:SQLDriverConnect
   fun:_ZN18ConnectAsyncWorker7ExecuteEv
   fun:worker
   fun:start_thread
   fun:clone
}
{
   <insert_a_suppression_name_here>
   Memcheck:Leak
   match-leak-kinds: reachable
   fun:_Znwm
   fun:_ZN4node22PerIsolatePlatformData15PostDelayedTaskESt10unique_ptrIN2v84TaskESt14default_deleteIS3_EEd.part.307
   fun:_ZN2v88internal13MemoryReducer13ScheduleTimerEd
   fun:_ZN2v88internal4Heap28NotifyOldGenerationExpansionENS0_15AllocationSpaceEPNS0_11MemoryChunkE
   fun:_ZN2v88internal10PagedSpace20MergeCompactionSpaceEPNS0_15CompactionSpaceE
   fun:_ZN2v88internal9Scavenger8FinalizeEv
   fun:_ZN2v88internal18ScavengerCollector14CollectGarbageEv
   fun:_ZN2v88internal4Heap8ScavengeEv
   fun:_ZN2v88internal4Heap24PerformGarbageCollectionENS0_16GarbageCollectorENS_15GCCallbackFlagsE.constprop.1307
   fun:_ZN2v88internal4Heap14CollectGarbageENS0_15AllocationSpaceENS0_23GarbageCollectionReasonENS_15GCCallbackFlagsE
   fun:_ZN2v88internal4Heap34AllocateRawWithRetryOrFailSlowPathEiNS0_14AllocationTypeENS0_16AllocationOriginENS0_19AllocationAlignmentE
   fun:_ZN2v88internal7Factory29AllocateRawWithAllocationSiteENS0_6HandleINS0_3MapEEENS0_14AllocationTypeENS2_INS0_14AllocationSiteEEE
   fun:_ZN2v88internal7Factory18NewJSObjectFromMapENS0_6HandleINS0_3MapEEENS0_14AllocationTypeENS2_INS0_14AllocationSiteEEE
   fun:_ZN2v88internal7Factory32NewJSArrayWithUnverifiedElementsENS0_6HandleINS0_14FixedArrayBaseEEENS0_12ElementsKindEiNS0_14AllocationTypeE
   fun:_ZN2v88internal7Factory10NewJSArrayENS0_12ElementsKindEiiNS0_26ArrayStorageAllocationModeENS0_14AllocationTypeE
   fun:_ZN2v88internal16ElementsAccessor6ConcatEPNS0_7IsolateEPNS0_16BuiltinArgumentsEjj
   fun:_ZN2v88internal12_GLOBAL__N_116Fast_ArrayConcatEPNS0_7IsolateEPNS0_16BuiltinArgumentsE.part.83
   fun:_ZN2v88internal19Builtin_ArrayConcatEiPmPNS0_7IsolateE
   fun:Builtins_CEntry_Return1_DontSaveFPRegs_ArgvOnStack_BuiltinExit
   obj:*
   obj:*
   obj:*
   obj:*
   obj:*
   fun:Builtins_InterpreterEntryTrampoline
   obj:*
   fun:Builtins_InterpreterEntryTrampoline
   obj:*
   obj:*
   obj:*
   obj:*
   fun:Builtins_InterpreterEntryTrampoline
   obj:*
   fun:Builtins_InterpreterEntryTrampoline
   obj:*
   obj:*
   obj:*
   obj:*
   fun:Builtins_InterpreterEntryTrampoline
   obj:*
   fun:Builtins_InterpreterEntryTrampoline
   obj:*
   obj:*
   obj:*
   obj:*
   fun:Builtins_InterpreterEntryTrampoline
   obj:*
   fun:Builtins_InterpreterEntryTrampoline
   obj:*
   obj:*
   obj:*
   obj:*
   fun:Builtins_InterpreterEntryTrampoline
   fun:Builtins_InterpreterEntryTrampoline
   fun:Builtins_InterpreterEntryTrampoline
   fun:Builtins_InterpreterEntryTrampoline
   fun:Builtins_InterpreterEntryTrampoline
   fun:Builtins_InterpreterEntryTrampoline
   obj:*
   fun:Builtins_InterpreterEntryTrampoline
   fun:Builtins_InterpreterEntryTrampoline
   fun:Builtins_InterpreterEntryTrampoline
   fun:Builtins_InterpreterEntryTrampoline
   fun:Builtins_InterpreterEntryTrampoline
   fun:Builtins_InterpreterEntryTrampoline
   fun:Builtins_InterpreterEntryTrampoline
   fun:Builtins_InterpreterEntryTrampoline
   fun:Builtins_InterpreterEntryTrampoline
   fun:Builtins_InterpreterEntryTrampoline
   fun:Builtins_InterpreterEntryTrampoline
   fun:Builtins_InterpreterEntryTrampoline
   fun:Builtins_InterpreterEntryTrampoline
   fun:Builtins_InterpreterEntryTrampoline
   fun:Builtins_InterpreterEntryTrampoline
   fun:Builtins_InterpreterEntryTrampoline
   fun:Builtins_InterpreterEntryTrampoline
   fun:Builtins_InterpreterEntryTrampoline
   fun:Builtins_InterpreterEntryTrampoline
   fun:Builtins_InterpreterEntryTrampoline
   fun:Builtins_InterpreterEntryTrampoline
   fun:Builtins_JSEntryTrampoline
   fun:Builtins_JSEntry
   fun:_ZN2v88internal12_GLOBAL__N_16InvokeEPNS0_7IsolateERKNS1_12InvokeParamsE
   fun:_ZN2v88internal9Execution4CallEPNS0_7IsolateENS0_6HandleINS0_6ObjectEEES6_iPS6_
   fun:_ZN2v88Function4CallENS_5LocalINS_7ContextEEENS1_INS_5ValueEEEiPS5_
   fun:_ZN4node19ExecuteBootstrapperEPNS_11EnvironmentEPKcPSt6vectorIN2v85LocalINS5_6StringEEESaIS8_EEPS4_INS6_INS5_5ValueEEESaISD_EE
   fun:_ZN4nodeL14StartExecutionEPNS_11EnvironmentEPKc
   fun:_ZN4node14StartExecutionEPNS_11EnvironmentESt8functionIFN2v810MaybeLocalINS3_5ValueEEERKNS_26StartExecutionCallbackInfoEEE
   fun:_ZN4node15LoadEnvironmentEPNS_11EnvironmentESt8functionIFN2v810MaybeLocalINS3_5ValueEEERKNS_26StartExecutionCallbackInfoEEE
   fun:_ZN4node16NodeMainInstance3RunEv
   fun:_ZN4node5StartEiPPc
   fun:(below main)
}
{
   <insert_a_suppression_name_here>
   Memcheck:Leak
   match-leak-kinds: reachable
   fun:malloc
   fun:realloc
   fun:uv__realloc
   fun:uv__reallocf
   fun:maybe_resize
   fun:uv__io_start
   fun:uv__signal_loop_once_init
   fun:uv__signal_loop_once_init
   fun:uv_signal_init
   fun:uv_loop_init
   fun:uv_default_loop
   fun:uv_default_loop
   fun:_ZN4node5StartEiPPc
   fun:(below main)
}
{
   <insert_a_suppression_name_here>
   Memcheck:Leak
   match-leak-kinds: possible
   fun:calloc
   fun:allocate_dtv
   fun:_dl_allocate_tls
   fun:allocate_stack
   fun:pthread_create@@GLIBC_2.2.5
   fun:_ZN4node9inspector5Agent5StartERKSsRKNS_12DebugOptionsESt10shared_ptrINS_15ExclusiveAccessINS_8HostPortENS_9MutexBaseINS_16LibuvMutexTraitsEEEEEEb
   fun:_ZN4node11Environment19InitializeInspectorESt10unique_ptrINS_9inspector21ParentInspectorHandleESt14default_deleteIS3_EE
   fun:_ZN4node16NodeMainInstance21CreateMainEnvironmentEPi
   fun:_ZN4node16NodeMainInstance3RunEv
   fun:_ZN4node5StartEiPPc
   fun:(below main)
}
{
   <insert_a_suppression_name_here>
   Memcheck:Leak
   match-leak-kinds: reachable
   fun:_Znwm
   fun:_ZN2v88internal26GlobalBackingStoreRegistry8RegisterESt10shared_ptrINS0_12BackingStoreEE
   fun:_ZN2v811ArrayBuffer15GetBackingStoreEv
   fun:_ZN4node6Buffer4DataEN2v85LocalINS1_6ObjectEEE
   fun:_ZN4node2fsL4ReadERKN2v820FunctionCallbackInfoINS1_5ValueEEE
   fun:_ZN2v88internal12_GLOBAL__N_119HandleApiCallHelperILb0EEENS0_11MaybeHandleINS0_6ObjectEEEPNS0_7IsolateENS0_6HandleINS0_10HeapObjectEEESA_NS8_INS0_20FunctionTemplateInfoEEENS8_IS4_EENS0_16BuiltinArgumentsE
   fun:_ZN2v88internal21Builtin_HandleApiCallEiPmPNS0_7IsolateE
   fun:Builtins_CEntry_Return1_DontSaveFPRegs_ArgvOnStack_BuiltinExit
   obj:*
   obj:*
   obj:*
   fun:Builtins_InterpreterEntryTrampoline
   obj:*
   obj:*
   obj:*
   obj:*
   fun:Builtins_InterpreterEntryTrampoline
   obj:*
   fun:Builtins_InterpreterEntryTrampoline
   obj:*
   obj:*
   obj:*
   obj:*
   fun:Builtins_InterpreterEntryTrampoline
   fun:Builtins_InterpreterEntryTrampoline
   fun:Builtins_InterpreterEntryTrampoline
   fun:Builtins_InterpreterEntryTrampoline
   fun:Builtins_InterpreterEntryTrampoline
   fun:Builtins_InterpreterEntryTrampoline
   obj:*
   fun:Builtins_InterpreterEntryTrampoline
   fun:Builtins_InterpreterEntryTrampoline
   fun:Builtins_InterpreterEntryTrampoline
   fun:Builtins_InterpreterEntryTrampoline
   fun:Builtins_InterpreterEntryTrampoline
   fun:Builtins_InterpreterEntryTrampoline
   fun:Builtins_InterpreterEntryTrampoline
   fun:Builtins_InterpreterEntryTrampoline
   fun:Builtins_InterpreterEntryTrampoline
   fun:Builtins_InterpreterEntryTrampoline
   fun:Builtins_InterpreterEntryTrampoline
   fun:Builtins_InterpreterEntryTrampoline
   fun:Builtins_InterpreterEntryTrampoline
   fun:Builtins_InterpreterEntryTrampoline
   fun:Builtins_InterpreterEntryTrampoline
   fun:Builtins_InterpreterEntryTrampoline
   fun:Builtins_InterpreterEntryTrampoline
   fun:Builtins_InterpreterEntryTrampoline
   fun:Builtins_InterpreterEntryTrampoline
   fun:Builtins_InterpreterEntryTrampoline
   fun:Builtins_InterpreterEntryTrampoline
   fun:Builtins_JSEntryTrampoline
   fun:Builtins_JSEntry
   fun:_ZN2v88internal12_GLOBAL__N_16InvokeEPNS0_7IsolateERKNS1_12InvokeParamsE
   fun:_ZN2v88internal9Execution4CallEPNS0_7IsolateENS0_6HandleINS0_6ObjectEEES6_iPS6_
   fun:_ZN2v88Function4CallENS_5LocalINS_7ContextEEENS1_INS_5ValueEEEiPS5_
   fun:_ZN4node19ExecuteBootstrapperEPNS_11EnvironmentEPKcPSt6vectorIN2v85LocalINS5_6StringEEESaIS8_EEPS4_INS6_INS5_5ValueEEESaISD_EE
   fun:_ZN4nodeL14StartExecutionEPNS_11EnvironmentEPKc
   fun:_ZN4node14StartExecutionEPNS_11EnvironmentESt8functionIFN2v810MaybeLocalINS3_5ValueEEERKNS_26StartExecutionCallbackInfoEEE
   fun:_ZN4node15LoadEnvironmentEPNS_11EnvironmentESt8functionIFN2v810MaybeLocalINS3_5ValueEEERKNS_26StartExecutionCallbackInfoEEE
   fun:_ZN4node16NodeMainInstance3RunEv
   fun:_ZN4node5StartEiPPc
   fun:(below main)
}
{
   <insert_a_suppression_name_here>
   Memcheck:Leak
   match-leak-kinds: reachable
   fun:_Znwm
   fun:_ZNSt11_Deque_baseISt10unique_ptrIN4node11DelayedTaskESt14default_deleteIS2_EESaIS5_EE17_M_initialize_mapEm
   fun:_ZN4node22PerIsolatePlatformData8ShutdownEv
   fun:_ZN4node12NodePlatform17UnregisterIsolateEPN2v87IsolateE
   fun:_ZN4node16NodeMainInstanceD1Ev
   fun:_ZN4node5StartEiPPc
   fun:(below main)
}
{
   <insert_a_suppression_name_here>
   Memcheck:Leak
   match-leak-kinds: reachable
   fun:_Znwm
   fun:_ZNSt11_Deque_baseISt10unique_ptrIN2v84TaskESt14default_deleteIS2_EESaIS5_EE17_M_initialize_mapEm
   fun:_ZN4node22PerIsolatePlatformData8ShutdownEv
   fun:_ZN4node12NodePlatform17UnregisterIsolateEPN2v87IsolateE
   fun:_ZN4node16NodeMainInstanceD1Ev
   fun:_ZN4node5StartEiPPc
   fun:(below main)
}
{
   <insert_a_suppression_name_here>
   Memcheck:Leak
   match-leak-kinds: reachable
   fun:_Znwm
   fun:_ZN4node12NodePlatform15RegisterIsolateEPN2v87IsolateEP9uv_loop_s
   fun:_ZN4node16NodeMainInstanceC1EPKNS_12SnapshotDataEP9uv_loop_sPNS_20MultiIsolatePlatformERKSt6vectorISsSaISsEESC_
   fun:_ZN4node5StartEiPPc
   fun:(below main)
}
{
   <insert_a_suppression_name_here>
   Memcheck:Leak
   match-leak-kinds: reachable
   fun:malloc
   fun:_ZN6icu_7110UnicodeSet6freezeEv
   fun:_ZN2v88internal14BuildIgnoreSetEv
   fun:_ZN2v84base16LazyInstanceImplINS_8internal13IgnoreSetDataENS0_32StaticallyAllocatedInstanceTraitIS3_EENS0_21DefaultConstructTraitIS3_EENS0_23ThreadSafeInitOnceTraitENS0_18LeakyInstanceTraitIS3_EEE12InitInstanceEPv
   fun:_ZN2v84base12CallOnceImplEPSt6atomicIhESt8functionIFvvEE
   fun:_ZN2v88internal17RegExpCaseFolding9IgnoreSetEv
   fun:_ZN2v88internalL25GetCaseIndependentLettersEPNS0_7IsolateEtbPji.constprop.234
   fun:_ZN2v88internal8TextNode12TextEmitPassEPNS0_14RegExpCompilerENS1_16TextEmitPassTypeEbPNS0_5TraceEbPi
   fun:_ZN2v88internal8TextNode4EmitEPNS0_14RegExpCompilerEPNS0_5TraceE
   fun:_ZN2v88internal13AssertionNode4EmitEPNS0_14RegExpCompilerEPNS0_5TraceE
   fun:_ZN2v88internal10ActionNode4EmitEPNS0_14RegExpCompilerEPNS0_5TraceE
   fun:_ZN2v88internal14RegExpCompiler8AssembleEPNS0_7IsolateEPNS0_20RegExpMacroAssemblerEPNS0_10RegExpNodeEiNS0_6HandleINS0_6StringEEE
   fun:_ZN2v88internal10RegExpImpl7CompileEPNS0_7IsolateEPNS0_4ZoneEPNS0_17RegExpCompileDataENS_4base5FlagsINS0_8JSRegExp4FlagEiEENS0_6HandleINS0_6StringEEESF_bRj
   fun:_ZN2v88internal10RegExpImpl15CompileIrregexpEPNS0_7IsolateENS0_6HandleINS0_8JSRegExpEEENS4_INS0_6StringEEEb
   fun:_ZN2v88internal10RegExpImpl15IrregexpPrepareEPNS0_7IsolateENS0_6HandleINS0_8JSRegExpEEENS4_INS0_6StringEEE
   fun:_ZN2v88internal10RegExpImpl12IrregexpExecEPNS0_7IsolateENS0_6HandleINS0_8JSRegExpEEENS4_INS0_6StringEEEiNS4_INS0_15RegExpMatchInfoEEENS0_6RegExp10ExecQuirksE
   fun:_ZN2v88internal18Runtime_RegExpExecEiPmPNS0_7IsolateE
   fun:Builtins_CEntry_Return1_DontSaveFPRegs_ArgvOnStack_NoBuiltinExit
   fun:Builtins_RegExpPrototypeTest
   fun:Builtins_InterpreterEntryTrampoline
   obj:*
   fun:Builtins_InterpreterEntryTrampoline
   obj:*
   obj:*
   obj:*
   obj:*
   fun:Builtins_InterpreterEntryTrampoline
   obj:*
   fun:Builtins_InterpreterEntryTrampoline
   obj:*
   obj:*
   obj:*
   obj:*
   fun:Builtins_InterpreterEntryTrampoline
   fun:Builtins_InterpreterEntryTrampoline
   fun:Builtins_InterpreterEntryTrampoline
   fun:Builtins_InterpreterEntryTrampoline
   fun:Builtins_InterpreterEntryTrampoline
   fun:Builtins_InterpreterEntryTrampoline
   obj:*
   fun:Builtins_InterpreterEntryTrampoline
   fun:Builtins_InterpreterEntryTrampoline
   fun:Builtins_InterpreterEntryTrampoline
   fun:Builtins_InterpreterEntryTrampoline
   fun:Builtins_InterpreterEntryTrampoline
   fun:Builtins_InterpreterEntryTrampoline
   fun:Builtins_InterpreterEntryTrampoline
   fun:Builtins_InterpreterEntryTrampoline
   fun:Builtins_InterpreterEntryTrampoline
   fun:Builtins_InterpreterEntryTrampoline
   fun:Builtins_InterpreterEntryTrampoline
   fun:Builtins_InterpreterEntryTrampoline
   fun:Builtins_InterpreterEntryTrampoline
   fun:Builtins_InterpreterEntryTrampoline
   fun:Builtins_InterpreterEntryTrampoline
   fun:Builtins_InterpreterEntryTrampoline
   fun:Builtins_InterpreterEntryTrampoline
   fun:Builtins_InterpreterEntryTrampoline
   fun:Builtins_InterpreterEntryTrampoline
   fun:Builtins_InterpreterEntryTrampoline
   fun:Builtins_InterpreterEntryTrampoline
   fun:Builtins_JSEntryTrampoline
   fun:Builtins_JSEntry
   fun:_ZN2v88internal12_GLOBAL__N_16InvokeEPNS0_7IsolateERKNS1_12InvokeParamsE
   fun:_ZN2v88internal9Execution4CallEPNS0_7IsolateENS0_6HandleINS0_6ObjectEEES6_iPS6_
   fun:_ZN2v88Function4CallENS_5LocalINS_7ContextEEENS1_INS_5ValueEEEiPS5_
   fun:_ZN4node19ExecuteBootstrapperEPNS_11EnvironmentEPKcPSt6vectorIN2v85LocalINS5_6StringEEESaIS8_EEPS4_INS6_INS5_5ValueEEESaISD_EE
   fun:_ZN4nodeL14StartExecutionEPNS_11EnvironmentEPKc
   fun:_ZN4node14StartExecutionEPNS_11EnvironmentESt8functionIFN2v810MaybeLocalINS3_5ValueEEERKNS_26StartExecutionCallbackInfoEEE
   fun:_ZN4node15LoadEnvironmentEPNS_11EnvironmentESt8functionIFN2v810MaybeLocalINS3_5ValueEEERKNS_26StartExecutionCallbackInfoEEE
   fun:_ZN4node16NodeMainInstance3RunEv
   fun:_ZN4node5StartEiPPc
   fun:(below main)
}
{
   <insert_a_suppression_name_here>
   Memcheck:Leak
   match-leak-kinds: reachable
   fun:malloc
   fun:_ZN6icu_7110UnicodeSet6freezeEv
   fun:_ZN2v88internal18BuildSpecialAddSetEv
   fun:_ZN2v84base16LazyInstanceImplINS_8internal17SpecialAddSetDataENS0_32StaticallyAllocatedInstanceTraitIS3_EENS0_21DefaultConstructTraitIS3_EENS0_23ThreadSafeInitOnceTraitENS0_18LeakyInstanceTraitIS3_EEE12InitInstanceEPv
   fun:_ZN2v84base12CallOnceImplEPSt6atomicIhESt8functionIFvvEE
   fun:_ZN2v88internal17RegExpCaseFolding13SpecialAddSetEv
   fun:_ZN2v88internalL25GetCaseIndependentLettersEPNS0_7IsolateEtbPji.constprop.234
   fun:_ZN2v88internal8TextNode12TextEmitPassEPNS0_14RegExpCompilerENS1_16TextEmitPassTypeEbPNS0_5TraceEbPi
   fun:_ZN2v88internal8TextNode4EmitEPNS0_14RegExpCompilerEPNS0_5TraceE
   fun:_ZN2v88internal13AssertionNode4EmitEPNS0_14RegExpCompilerEPNS0_5TraceE
   fun:_ZN2v88internal10ActionNode4EmitEPNS0_14RegExpCompilerEPNS0_5TraceE
   fun:_ZN2v88internal14RegExpCompiler8AssembleEPNS0_7IsolateEPNS0_20RegExpMacroAssemblerEPNS0_10RegExpNodeEiNS0_6HandleINS0_6StringEEE
   fun:_ZN2v88internal10RegExpImpl7CompileEPNS0_7IsolateEPNS0_4ZoneEPNS0_17RegExpCompileDataENS_4base5FlagsINS0_8JSRegExp4FlagEiEENS0_6HandleINS0_6StringEEESF_bRj
   fun:_ZN2v88internal10RegExpImpl15CompileIrregexpEPNS0_7IsolateENS0_6HandleINS0_8JSRegExpEEENS4_INS0_6StringEEEb
   fun:_ZN2v88internal10RegExpImpl15IrregexpPrepareEPNS0_7IsolateENS0_6HandleINS0_8JSRegExpEEENS4_INS0_6StringEEE
   fun:_ZN2v88internal10RegExpImpl12IrregexpExecEPNS0_7IsolateENS0_6HandleINS0_8JSRegExpEEENS4_INS0_6StringEEEiNS4_INS0_15RegExpMatchInfoEEENS0_6RegExp10ExecQuirksE
   fun:_ZN2v88internal18Runtime_RegExpExecEiPmPNS0_7IsolateE
   fun:Builtins_CEntry_Return1_DontSaveFPRegs_ArgvOnStack_NoBuiltinExit
   fun:Builtins_RegExpPrototypeTest
   fun:Builtins_InterpreterEntryTrampoline
   obj:*
   fun:Builtins_InterpreterEntryTrampoline
   obj:*
   obj:*
   obj:*
   obj:*
   fun:Builtins_InterpreterEntryTrampoline
   obj:*
   fun:Builtins_InterpreterEntryTrampoline
   obj:*
   obj:*
   obj:*
   obj:*
   fun:Builtins_InterpreterEntryTrampoline
   fun:Builtins_InterpreterEntryTrampoline
   fun:Builtins_InterpreterEntryTrampoline
   fun:Builtins_InterpreterEntryTrampoline
   fun:Builtins_InterpreterEntryTrampoline
   fun:Builtins_InterpreterEntryTrampoline
   obj:*
   fun:Builtins_InterpreterEntryTrampoline
   fun:Builtins_InterpreterEntryTrampoline
   fun:Builtins_InterpreterEntryTrampoline
   fun:Builtins_InterpreterEntryTrampoline
   fun:Builtins_InterpreterEntryTrampoline
   fun:Builtins_InterpreterEntryTrampoline
   fun:Builtins_InterpreterEntryTrampoline
   fun:Builtins_InterpreterEntryTrampoline
   fun:Builtins_InterpreterEntryTrampoline
   fun:Builtins_InterpreterEntryTrampoline
   fun:Builtins_InterpreterEntryTrampoline
   fun:Builtins_InterpreterEntryTrampoline
   fun:Builtins_InterpreterEntryTrampoline
   fun:Builtins_InterpreterEntryTrampoline
   fun:Builtins_InterpreterEntryTrampoline
   fun:Builtins_InterpreterEntryTrampoline
   fun:Builtins_InterpreterEntryTrampoline
   fun:Builtins_InterpreterEntryTrampoline
   fun:Builtins_InterpreterEntryTrampoline
   fun:Builtins_InterpreterEntryTrampoline
   fun:Builtins_InterpreterEntryTrampoline
   fun:Builtins_JSEntryTrampoline
   fun:Builtins_JSEntry
   fun:_ZN2v88internal12_GLOBAL__N_16InvokeEPNS0_7IsolateERKNS1_12InvokeParamsE
   fun:_ZN2v88internal9Execution4CallEPNS0_7IsolateENS0_6HandleINS0_6ObjectEEES6_iPS6_
   fun:_ZN2v88Function4CallENS_5LocalINS_7ContextEEENS1_INS_5ValueEEEiPS5_
   fun:_ZN4node19ExecuteBootstrapperEPNS_11EnvironmentEPKcPSt6vectorIN2v85LocalINS5_6StringEEESaIS8_EEPS4_INS6_INS5_5ValueEEESaISD_EE
   fun:_ZN4nodeL14StartExecutionEPNS_11EnvironmentEPKc
   fun:_ZN4node14StartExecutionEPNS_11EnvironmentESt8functionIFN2v810MaybeLocalINS3_5ValueEEERKNS_26StartExecutionCallbackInfoEEE
   fun:_ZN4node15LoadEnvironmentEPNS_11EnvironmentESt8functionIFN2v810MaybeLocalINS3_5ValueEEERKNS_26StartExecutionCallbackInfoEEE
   fun:_ZN4node16NodeMainInstance3RunEv
   fun:_ZN4node5StartEiPPc
   fun:(below main)
}
{
   <insert_a_suppression_name_here>
   Memcheck:Leak
   match-leak-kinds: reachable
   fun:calloc
   fun:_dl_new_object
   fun:_dl_map_object_from_fd
   fun:_dl_map_object
   fun:dl_open_worker
   fun:_dl_catch_exception
   fun:_dl_open
   fun:dlopen_doit
   fun:_dl_catch_exception
   fun:_dl_catch_error
   fun:_dlerror_run
   fun:dlopen@@GLIBC_2.2.5
   fun:_ZZN4node7binding6DLOpenERKN2v820FunctionCallbackInfoINS1_5ValueEEEENKUlPNS0_4DLibEE_clES8_
   fun:_ZN4node11Environment12TryLoadAddonEPKciRKSt8functionIFbPNS_7binding4DLibEEE
   fun:_ZN4node7binding6DLOpenERKN2v820FunctionCallbackInfoINS1_5ValueEEE
   fun:_ZN2v88internal12_GLOBAL__N_119HandleApiCallHelperILb0EEENS0_11MaybeHandleINS0_6ObjectEEEPNS0_7IsolateENS0_6HandleINS0_10HeapObjectEEESA_NS8_INS0_20FunctionTemplateInfoEEENS8_IS4_EENS0_16BuiltinArgumentsE
   fun:_ZN2v88internal21Builtin_HandleApiCallEiPmPNS0_7IsolateE
   fun:Builtins_CEntry_Return1_DontSaveFPRegs_ArgvOnStack_BuiltinExit
   fun:Builtins_InterpreterEntryTrampoline
   obj:*
   obj:*
   obj:*
   obj:*
   fun:Builtins_InterpreterEntryTrampoline
   fun:Builtins_InterpreterEntryTrampoline
   fun:Builtins_InterpreterEntryTrampoline
   fun:Builtins_InterpreterEntryTrampoline
   fun:Builtins_InterpreterEntryTrampoline
   fun:Builtins_InterpreterEntryTrampoline
   fun:Builtins_InterpreterEntryTrampoline
   fun:Builtins_InterpreterEntryTrampoline
   fun:Builtins_InterpreterEntryTrampoline
   fun:Builtins_InterpreterEntryTrampoline
   fun:Builtins_InterpreterEntryTrampoline
   fun:Builtins_InterpreterEntryTrampoline
   fun:Builtins_InterpreterEntryTrampoline
   fun:Builtins_InterpreterEntryTrampoline
   fun:Builtins_JSEntryTrampoline
   fun:Builtins_JSEntry
   fun:_ZN2v88internal12_GLOBAL__N_16InvokeEPNS0_7IsolateERKNS1_12InvokeParamsE
   fun:_ZN2v88internal9Execution4CallEPNS0_7IsolateENS0_6HandleINS0_6ObjectEEES6_iPS6_
   fun:_ZN2v88Function4CallENS_5LocalINS_7ContextEEENS1_INS_5ValueEEEiPS5_
   fun:_ZN4node19ExecuteBootstrapperEPNS_11EnvironmentEPKcPSt6vectorIN2v85LocalINS5_6StringEEESaIS8_EEPS4_INS6_INS5_5ValueEEESaISD_EE
   fun:_ZN4nodeL14StartExecutionEPNS_11EnvironmentEPKc
   fun:_ZN4node14StartExecutionEPNS_11EnvironmentESt8functionIFN2v810MaybeLocalINS3_5ValueEEERKNS_26StartExecutionCallbackInfoEEE
   fun:_ZN4node15LoadEnvironmentEPNS_11EnvironmentESt8functionIFN2v810MaybeLocalINS3_5ValueEEERKNS_26StartExecutionCallbackInfoEEE
   fun:_ZN4node16NodeMainInstance3RunEv
   fun:_ZN4node5StartEiPPc
   fun:(below main)
}
{
   <insert_a_suppression_name_here>
   Memcheck:Leak
   match-leak-kinds: reachable
   fun:calloc
   obj:/usr/lib/x86_64-linux-gnu/libodbc.so.2.0.0
   obj:/usr/lib/x86_64-linux-gnu/libodbc.so.2.0.0
   fun:_ZN4ODBC4InitEN4Napi3EnvENS0_6ObjectE
   fun:_Z7InitAllN4Napi3EnvENS_6ObjectE
   fun:operator()
   fun:WrapCallback<Napi::RegisterModule(napi_env, napi_value, Napi::ModuleRegisterCallback)::<lambda()> >
   fun:RegisterModule
   fun:_Z14__napi_InitAllP10napi_env__P12napi_value__
   fun:_Z30napi_module_register_by_symbolN2v85LocalINS_6ObjectEEENS0_INS_5ValueEEENS0_INS_7ContextEEEPFP12napi_value__P10napi_env__S8_E
   fun:_ZZN4node7binding6DLOpenERKN2v820FunctionCallbackInfoINS1_5ValueEEEENKUlPNS0_4DLibEE_clES8_
   fun:_ZN4node11Environment12TryLoadAddonEPKciRKSt8functionIFbPNS_7binding4DLibEEE
   fun:_ZN4node7binding6DLOpenERKN2v820FunctionCallbackInfoINS1_5ValueEEE
   fun:_ZN2v88internal12_GLOBAL__N_119HandleApiCallHelperILb0EEENS0_11MaybeHandleINS0_6ObjectEEEPNS0_7IsolateENS0_6HandleINS0_10HeapObjectEEESA_NS8_INS0_20FunctionTemplateInfoEEENS8_IS4_EENS0_16BuiltinArgumentsE
   fun:_ZN2v88internal21Builtin_HandleApiCallEiPmPNS0_7IsolateE
   fun:Builtins_CEntry_Return1_DontSaveFPRegs_ArgvOnStack_BuiltinExit
   fun:Builtins_InterpreterEntryTrampoline
   obj:*
   obj:*
   obj:*
   obj:*
   fun:Builtins_InterpreterEntryTrampoline
   fun:Builtins_InterpreterEntryTrampoline
   fun:Builtins_InterpreterEntryTrampoline
   fun:Builtins_InterpreterEntryTrampoline
   fun:Builtins_InterpreterEntryTrampoline
   fun:Builtins_InterpreterEntryTrampoline
   fun:Builtins_InterpreterEntryTrampoline
   fun:Builtins_InterpreterEntryTrampoline
   fun:Builtins_InterpreterEntryTrampoline
   fun:Builtins_InterpreterEntryTrampoline
   fun:Builtins_InterpreterEntryTrampoline
   fun:Builtins_InterpreterEntryTrampoline
   fun:Builtins_InterpreterEntryTrampoline
   fun:Builtins_InterpreterEntryTrampoline
   fun:Builtins_JSEntryTrampoline
   fun:Builtins_JSEntry
   fun:_ZN2v88internal12_GLOBAL__N_16InvokeEPNS0_7IsolateERKNS1_12InvokeParamsE
   fun:_ZN2v88internal9Execution4CallEPNS0_7IsolateENS0_6HandleINS0_6ObjectEEES6_iPS6_
   fun:_ZN2v88Function4CallENS_5LocalINS_7ContextEEENS1_INS_5ValueEEEiPS5_
   fun:_ZN4node19ExecuteBootstrapperEPNS_11EnvironmentEPKcPSt6vectorIN2v85LocalINS5_6StringEEESaIS8_EEPS4_INS6_INS5_5ValueEEESaISD_EE
   fun:_ZN4nodeL14StartExecutionEPNS_11EnvironmentEPKc
   fun:_ZN4node14StartExecutionEPNS_11EnvironmentESt8functionIFN2v810MaybeLocalINS3_5ValueEEERKNS_26StartExecutionCallbackInfoEEE
   fun:_ZN4node15LoadEnvironmentEPNS_11EnvironmentESt8functionIFN2v810MaybeLocalINS3_5ValueEEERKNS_26StartExecutionCallbackInfoEEE
   fun:_ZN4node16NodeMainInstance3RunEv
   fun:_ZN4node5StartEiPPc
   fun:(below main)
}
{
   <insert_a_suppression_name_here>
   Memcheck:Leak
   match-leak-kinds: reachable
   fun:malloc
   fun:uhash_open_71
   fun:_ZL15entryOpenDirectPKcS0_P10UErrorCode
   fun:ures_openDirectFillIn_71
   fun:_ZN6icu_718TimeZone16getTZDataVersionER10UErrorCode
   fun:_ZN4node8Metadata8Versions22InitializeIntlVersionsEv
   fun:_ZN4node22InitializeNodeWithArgsEPSt6vectorISsSaISsEES3_S3_NS_12ProcessFlags5FlagsE
   fun:_ZN4node24InitializeOncePerProcessEiPPcNS_27InitializationSettingsFlagsENS_12ProcessFlags5FlagsE
   fun:_ZN4node5StartEiPPc
   fun:(below main)
}
{
   <insert_a_suppression_name_here>
   Memcheck:Leak
   match-leak-kinds: reachable
   fun:malloc
   fun:uhash_open_71
   fun:_ZN6icu_7111Normalizer211getInstanceEPKcS2_19UNormalization2ModeR10UErrorCode
   fun:uidna_openUTS46_71
   fun:_ZN4node4i18n7ToASCIIEPNS_16MaybeStackBufferIcLm1024EEEPKcmNS0_9idna_modeE
   fun:_ZN4node4i18nL7ToASCIIERKN2v820FunctionCallbackInfoINS1_5ValueEEE
   fun:_ZN2v88internal12_GLOBAL__N_119HandleApiCallHelperILb0EEENS0_11MaybeHandleINS0_6ObjectEEEPNS0_7IsolateENS0_6HandleINS0_10HeapObjectEEESA_NS8_INS0_20FunctionTemplateInfoEEENS8_IS4_EENS0_16BuiltinArgumentsE
   fun:_ZN2v88internal21Builtin_HandleApiCallEiPmPNS0_7IsolateE
   fun:Builtins_CEntry_Return1_DontSaveFPRegs_ArgvOnStack_BuiltinExit
   fun:Builtins_InterpreterEntryTrampoline
   fun:Builtins_InterpreterEntryTrampoline
   fun:Builtins_InterpreterEntryTrampoline
   fun:Builtins_InterpreterEntryTrampoline
   fun:Builtins_InterpreterEntryTrampoline
   fun:Builtins_InterpreterEntryTrampoline
   fun:Builtins_InterpreterEntryTrampoline
   fun:Builtins_InterpreterEntryTrampoline
   fun:Builtins_InterpreterEntryTrampoline
   fun:Builtins_InterpreterEntryTrampoline
   fun:Builtins_InterpreterEntryTrampoline
   fun:Builtins_InterpreterEntryTrampoline
   fun:Builtins_InterpreterEntryTrampoline
   fun:Builtins_InterpreterEntryTrampoline
   fun:Builtins_InterpreterEntryTrampoline
   fun:Builtins_InterpreterEntryTrampoline
   fun:Builtins_InterpreterEntryTrampoline
   fun:Builtins_InterpreterEntryTrampoline
   fun:Builtins_JSEntryTrampoline
   fun:Builtins_JSEntry
   fun:_ZN2v88internal12_GLOBAL__N_16InvokeEPNS0_7IsolateERKNS1_12InvokeParamsE
   fun:_ZN2v88internal9Execution4CallEPNS0_7IsolateENS0_6HandleINS0_6ObjectEEES6_iPS6_
   fun:_ZN2v88Function4CallENS_5LocalINS_7ContextEEENS1_INS_5ValueEEEiPS5_
   fun:_ZN4node19ExecuteBootstrapperEPNS_11EnvironmentEPKcPSt6vectorIN2v85LocalINS5_6StringEEESaIS8_EEPS4_INS6_INS5_5ValueEEESaISD_EE
   fun:_ZN4nodeL14StartExecutionEPNS_11EnvironmentEPKc
   fun:_ZN4node14StartExecutionEPNS_11EnvironmentESt8functionIFN2v810MaybeLocalINS3_5ValueEEERKNS_26StartExecutionCallbackInfoEEE
   fun:_ZN4node15LoadEnvironmentEPNS_11EnvironmentESt8functionIFN2v810MaybeLocalINS3_5ValueEEERKNS_26StartExecutionCallbackInfoEEE
   fun:_ZN4node16NodeMainInstance3RunEv
   fun:_ZN4node5StartEiPPc
   fun:(below main)
}
{
   <insert_a_suppression_name_here>
   Memcheck:Leak
   match-leak-kinds: reachable
   fun:calloc
   obj:/usr/lib/x86_64-linux-gnu/libodbc.so.2.0.0
   obj:/usr/lib/x86_64-linux-gnu/libodbc.so.2.0.0
   fun:_ZN18ConnectAsyncWorker7ExecuteEv
   fun:worker
   fun:start_thread
   fun:clone
}
{
   <insert_a_suppression_name_here>
   Memcheck:Leak
   match-leak-kinds: reachable
   fun:malloc
   fun:_ZN2v88internal14AllocWithRetryEm
   fun:_ZN2v88internal19AccountingAllocator15AllocateSegmentEmb
   fun:_ZN2v88internal4Zone9NewExpandEm
   fun:_ZN2v88internal8compiler4Type5RangeEddPNS0_4ZoneE
   fun:_ZN2v88internal8compiler9TypeCache3GetEv
   fun:_ZN2v88internal8compiler29JSNativeContextSpecializationC1EPNS1_15AdvancedReducer6EditorEPNS1_7JSGraphEPNS1_12JSHeapBrokerENS_4base5FlagsINS2_4FlagEiEEPNS1_23CompilationDependenciesEPNS0_4ZoneESH_
   fun:_ZN2v88internal8compiler13InliningPhase3RunEPNS1_12PipelineDataEPNS0_4ZoneE
   fun:_ZN2v88internal8compiler12PipelineImpl11CreateGraphEv
   fun:_ZN2v88internal8compiler22PipelineCompilationJob14PrepareJobImplEPNS0_7IsolateE
   fun:_ZN2v88internal23OptimizedCompilationJob10PrepareJobEPNS0_7IsolateE
   fun:_ZN2v88internal12_GLOBAL__N_116GetOptimizedCodeEPNS0_7IsolateENS0_6HandleINS0_10JSFunctionEEENS0_15ConcurrencyModeENS0_8CodeKindENS0_14BytecodeOffsetEPNS0_15JavaScriptFrameENS1_30GetOptimizedCodeResultHandlingE
   fun:_ZN2v88internal8Compiler16CompileOptimizedEPNS0_7IsolateENS0_6HandleINS0_10JSFunctionEEENS0_15ConcurrencyModeENS0_8CodeKindE
   fun:_ZN2v88internal35Runtime_CompileOptimized_ConcurrentEiPmPNS0_7IsolateE
   fun:Builtins_CEntry_Return1_DontSaveFPRegs_ArgvOnStack_NoBuiltinExit
   fun:Builtins_BaselineOutOfLinePrologue
   obj:*
   fun:Builtins_InterpreterEntryTrampoline
   fun:Builtins_InterpreterEntryTrampoline
   fun:Builtins_InterpreterEntryTrampoline
   fun:Builtins_InterpreterEntryTrampoline
   obj:*
   fun:Builtins_InterpreterEntryTrampoline
   fun:Builtins_InterpreterEntryTrampoline
   fun:Builtins_InterpreterEntryTrampoline
   fun:Builtins_InterpreterEntryTrampoline
   fun:Builtins_InterpreterEntryTrampoline
   fun:Builtins_InterpreterEntryTrampoline
   fun:Builtins_InterpreterEntryTrampoline
   fun:Builtins_InterpreterEntryTrampoline
   fun:Builtins_InterpreterEntryTrampoline
   fun:Builtins_InterpreterEntryTrampoline
   fun:Builtins_InterpreterEntryTrampoline
   fun:Builtins_InterpreterEntryTrampoline
   fun:Builtins_InterpreterEntryTrampoline
   fun:Builtins_InterpreterEntryTrampoline
   fun:Builtins_InterpreterEntryTrampoline
   fun:Builtins_InterpreterEntryTrampoline
   fun:Builtins_InterpreterEntryTrampoline
   fun:Builtins_InterpreterEntryTrampoline
   fun:Builtins_InterpreterEntryTrampoline
   fun:Builtins_InterpreterEntryTrampoline
   fun:Builtins_InterpreterEntryTrampoline
   fun:Builtins_JSEntryTrampoline
   fun:Builtins_JSEntry
   fun:_ZN2v88internal12_GLOBAL__N_16InvokeEPNS0_7IsolateERKNS1_12InvokeParamsE
   fun:_ZN2v88internal9Execution4CallEPNS0_7IsolateENS0_6HandleINS0_6ObjectEEES6_iPS6_
   fun:_ZN2v88Function4CallENS_5LocalINS_7ContextEEENS1_INS_5ValueEEEiPS5_
   fun:_ZN4node19ExecuteBootstrapperEPNS_11EnvironmentEPKcPSt6vectorIN2v85LocalINS5_6StringEEESaIS8_EEPS4_INS6_INS5_5ValueEEESaISD_EE
   fun:_ZN4nodeL14StartExecutionEPNS_11EnvironmentEPKc
   fun:_ZN4node14StartExecutionEPNS_11EnvironmentESt8functionIFN2v810MaybeLocalINS3_5ValueEEERKNS_26StartExecutionCallbackInfoEEE
   fun:_ZN4node15LoadEnvironmentEPNS_11EnvironmentESt8functionIFN2v810MaybeLocalINS3_5ValueEEERKNS_26StartExecutionCallbackInfoEEE
   fun:_ZN4node16NodeMainInstance3RunEv
   fun:_ZN4node5StartEiPPc
   fun:(below main)
}

{
   <insert_a_suppression_name_here>
   Memcheck:Param
   write(buf)
   fun:__libc_write
   fun:write
   fun:uv__writev
   fun:uv__try_write.isra.5
   fun:uv__write
   fun:uv__write
   fun:uv_write2
   fun:uv_write
   fun:cliSend
   fun:cliConnCb
   fun:uv__stream_connect
   fun:uv__stream_io
   fun:uv__io_poll
   fun:uv_run
   fun:cliWorkThread
   fun:start_thread
   fun:clone
}
{
   <insert_a_suppression_name_here>
   Memcheck:Leak
   match-leak-kinds: reachable
   fun:malloc
   fun:allocate_dtv_entry
   fun:allocate_and_init
   fun:tls_get_addr_tail.isra.0
   fun:__tls_get_addr
   fun:taosGetSelfPthreadId
   fun:taosLockList
   fun:taosAcquireRef
   fun:schAcquireJob
   fun:schedulerFreeJob
   fun:taos_stop_query
   fun:destroyRequest
   fun:taos_free_result
   fun:stmt_release_result
   fun:stmt_release
   fun:stmt_unref
   fun:stmt_free
   fun:SQLFreeHandle
   obj:/usr/lib/x86_64-linux-gnu/libodbc.so.2.0.0
   fun:~QueryAsyncWorker
   fun:_ZN16QueryAsyncWorkerD0Ev
   fun:Destroy
   fun:OnWorkComplete
   fun:_ZN4Napi11AsyncWorker19OnAsyncWorkCompleteEP10napi_env__11napi_statusPv
   fun:_ZZN4node14ThreadPoolWork12ScheduleWorkEvENUlP9uv_work_siE0_4_FUNES2_i
   fun:uv__work_done
   fun:uv__async_io.part.1
   fun:uv__io_poll
   fun:uv_run
   fun:_ZN4node13SpinEventLoopEPNS_11EnvironmentE
   fun:_ZN4node16NodeMainInstance3RunEv
   fun:_ZN4node5StartEiPPc
   fun:(below main)
}

{
   <insert_a_suppression_name_here>
   Memcheck:Leak
   match-leak-kinds: definite
   fun:_Znam
   fun:_ZN15ODBCAsyncWorker13GetODBCErrorsEsPv
   fun:_ZN16QueryAsyncWorker7ExecuteEv
   fun:worker
   fun:start_thread
   fun:clone
}
{
   <insert_a_suppression_name_here>
   Memcheck:Leak
   match-leak-kinds: reachable
   fun:_Znwm
   fun:_ZN2v88internal13MemoryReducer13ScheduleTimerEd
   fun:_ZN2v88internal4Heap28NotifyOldGenerationExpansionENS0_15AllocationSpaceEPNS0_11MemoryChunkE
   fun:_ZN2v88internal10PagedSpace20MergeCompactionSpaceEPNS0_15CompactionSpaceE
   fun:_ZN2v88internal9Scavenger8FinalizeEv
   fun:_ZN2v88internal18ScavengerCollector14CollectGarbageEv
   fun:_ZN2v88internal4Heap8ScavengeEv
   fun:_ZN2v88internal4Heap24PerformGarbageCollectionENS0_16GarbageCollectorENS_15GCCallbackFlagsE.constprop.1307
   fun:_ZN2v88internal4Heap14CollectGarbageENS0_15AllocationSpaceENS0_23GarbageCollectionReasonENS_15GCCallbackFlagsE
   fun:_ZN2v88internal4Heap34AllocateRawWithRetryOrFailSlowPathEiNS0_14AllocationTypeENS0_16AllocationOriginENS0_19AllocationAlignmentE
   fun:_ZN2v88internal7Factory11AllocateRawEiNS0_14AllocationTypeENS0_19AllocationAlignmentE
   fun:_ZN2v88internal11FactoryBaseINS0_7FactoryEE16AllocateRawArrayEiNS0_14AllocationTypeE
   fun:_ZN2v88internal11FactoryBaseINS0_7FactoryEE23NewFixedArrayWithFillerENS0_6HandleINS0_3MapEEEiNS4_INS0_7OddballEEENS0_14AllocationTypeE
   fun:_ZN2v88internal7Factory17NewJSArrayStorageENS0_12ElementsKindEiNS0_26ArrayStorageAllocationModeE
   fun:_ZN2v88internal7Factory10NewJSArrayENS0_12ElementsKindEiiNS0_26ArrayStorageAllocationModeENS0_14AllocationTypeE
   fun:_ZN2v88internal16ElementsAccessor6ConcatEPNS0_7IsolateEPNS0_16BuiltinArgumentsEjj
   fun:_ZN2v88internal12_GLOBAL__N_116Fast_ArrayConcatEPNS0_7IsolateEPNS0_16BuiltinArgumentsE.part.83
   fun:_ZN2v88internal19Builtin_ArrayConcatEiPmPNS0_7IsolateE
   fun:Builtins_CEntry_Return1_DontSaveFPRegs_ArgvOnStack_BuiltinExit
   obj:*
   obj:*
   obj:*
   obj:*
   obj:*
   fun:Builtins_InterpreterEntryTrampoline
   obj:*
   fun:Builtins_InterpreterEntryTrampoline
   obj:*
   obj:*
   obj:*
   obj:*
   fun:Builtins_InterpreterEntryTrampoline
   obj:*
   fun:Builtins_InterpreterEntryTrampoline
   obj:*
   obj:*
   obj:*
   obj:*
   fun:Builtins_InterpreterEntryTrampoline
   obj:*
   fun:Builtins_InterpreterEntryTrampoline
   obj:*
   obj:*
   obj:*
   obj:*
   fun:Builtins_InterpreterEntryTrampoline
   obj:*
   fun:Builtins_InterpreterEntryTrampoline
   obj:*
   obj:*
   obj:*
   obj:*
   fun:Builtins_InterpreterEntryTrampoline
   fun:Builtins_InterpreterEntryTrampoline
   fun:Builtins_InterpreterEntryTrampoline
   fun:Builtins_InterpreterEntryTrampoline
   fun:Builtins_InterpreterEntryTrampoline
   fun:Builtins_InterpreterEntryTrampoline
   obj:*
   fun:Builtins_InterpreterEntryTrampoline
   fun:Builtins_InterpreterEntryTrampoline
   fun:Builtins_InterpreterEntryTrampoline
   fun:Builtins_InterpreterEntryTrampoline
   fun:Builtins_InterpreterEntryTrampoline
   fun:Builtins_InterpreterEntryTrampoline
   fun:Builtins_InterpreterEntryTrampoline
   fun:Builtins_InterpreterEntryTrampoline
   fun:Builtins_InterpreterEntryTrampoline
   fun:Builtins_InterpreterEntryTrampoline
   fun:Builtins_InterpreterEntryTrampoline
   fun:Builtins_InterpreterEntryTrampoline
   fun:Builtins_InterpreterEntryTrampoline
   fun:Builtins_InterpreterEntryTrampoline
   fun:Builtins_InterpreterEntryTrampoline
   fun:Builtins_InterpreterEntryTrampoline
   fun:Builtins_InterpreterEntryTrampoline
   fun:Builtins_InterpreterEntryTrampoline
   fun:Builtins_InterpreterEntryTrampoline
   fun:Builtins_InterpreterEntryTrampoline
   fun:Builtins_InterpreterEntryTrampoline
   fun:Builtins_JSEntryTrampoline
   fun:Builtins_JSEntry
   fun:_ZN2v88internal12_GLOBAL__N_16InvokeEPNS0_7IsolateERKNS1_12InvokeParamsE
   fun:_ZN2v88internal9Execution4CallEPNS0_7IsolateENS0_6HandleINS0_6ObjectEEES6_iPS6_
   fun:_ZN2v88Function4CallENS_5LocalINS_7ContextEEENS1_INS_5ValueEEEiPS5_
   fun:_ZN4node19ExecuteBootstrapperEPNS_11EnvironmentEPKcPSt6vectorIN2v85LocalINS5_6StringEEESaIS8_EEPS4_INS6_INS5_5ValueEEESaISD_EE
   fun:_ZN4nodeL14StartExecutionEPNS_11EnvironmentEPKc
   fun:_ZN4node14StartExecutionEPNS_11EnvironmentESt8functionIFN2v810MaybeLocalINS3_5ValueEEERKNS_26StartExecutionCallbackInfoEEE
   fun:_ZN4node15LoadEnvironmentEPNS_11EnvironmentESt8functionIFN2v810MaybeLocalINS3_5ValueEEERKNS_26StartExecutionCallbackInfoEEE
   fun:_ZN4node16NodeMainInstance3RunEv
   fun:_ZN4node5StartEiPPc
   fun:(below main)
}
{
   <insert_a_suppression_name_here>
   Memcheck:Leak
   match-leak-kinds: reachable
   fun:_Znwm
   fun:_ZN4node22PerIsolatePlatformData15PostDelayedTaskESt10unique_ptrIN2v84TaskESt14default_deleteIS3_EEd.part.307
   fun:_ZN2v88internal13MemoryReducer13ScheduleTimerEd
   fun:_ZN2v88internal4Heap28NotifyOldGenerationExpansionENS0_15AllocationSpaceEPNS0_11MemoryChunkE
   fun:_ZN2v88internal10PagedSpace20MergeCompactionSpaceEPNS0_15CompactionSpaceE
   fun:_ZN2v88internal9Scavenger8FinalizeEv
   fun:_ZN2v88internal18ScavengerCollector14CollectGarbageEv
   fun:_ZN2v88internal4Heap8ScavengeEv
   fun:_ZN2v88internal4Heap24PerformGarbageCollectionENS0_16GarbageCollectorENS_15GCCallbackFlagsE.constprop.1307
   fun:_ZN2v88internal4Heap14CollectGarbageENS0_15AllocationSpaceENS0_23GarbageCollectionReasonENS_15GCCallbackFlagsE
   fun:_ZN2v88internal4Heap34AllocateRawWithRetryOrFailSlowPathEiNS0_14AllocationTypeENS0_16AllocationOriginENS0_19AllocationAlignmentE
   fun:_ZN2v88internal7Factory11AllocateRawEiNS0_14AllocationTypeENS0_19AllocationAlignmentE
   fun:_ZN2v88internal11FactoryBaseINS0_7FactoryEE16AllocateRawArrayEiNS0_14AllocationTypeE
   fun:_ZN2v88internal11FactoryBaseINS0_7FactoryEE23NewFixedArrayWithFillerENS0_6HandleINS0_3MapEEEiNS4_INS0_7OddballEEENS0_14AllocationTypeE
   fun:_ZN2v88internal7Factory17NewJSArrayStorageENS0_12ElementsKindEiNS0_26ArrayStorageAllocationModeE
   fun:_ZN2v88internal7Factory10NewJSArrayENS0_12ElementsKindEiiNS0_26ArrayStorageAllocationModeENS0_14AllocationTypeE
   fun:_ZN2v88internal16ElementsAccessor6ConcatEPNS0_7IsolateEPNS0_16BuiltinArgumentsEjj
   fun:_ZN2v88internal12_GLOBAL__N_116Fast_ArrayConcatEPNS0_7IsolateEPNS0_16BuiltinArgumentsE.part.83
   fun:_ZN2v88internal19Builtin_ArrayConcatEiPmPNS0_7IsolateE
   fun:Builtins_CEntry_Return1_DontSaveFPRegs_ArgvOnStack_BuiltinExit
   obj:*
   obj:*
   obj:*
   obj:*
   obj:*
   fun:Builtins_InterpreterEntryTrampoline
   obj:*
   fun:Builtins_InterpreterEntryTrampoline
   obj:*
   obj:*
   obj:*
   obj:*
   fun:Builtins_InterpreterEntryTrampoline
   obj:*
   fun:Builtins_InterpreterEntryTrampoline
   obj:*
   obj:*
   obj:*
   obj:*
   fun:Builtins_InterpreterEntryTrampoline
   obj:*
   fun:Builtins_InterpreterEntryTrampoline
   obj:*
   obj:*
   obj:*
   obj:*
   fun:Builtins_InterpreterEntryTrampoline
   obj:*
   fun:Builtins_InterpreterEntryTrampoline
   obj:*
   obj:*
   obj:*
   obj:*
   fun:Builtins_InterpreterEntryTrampoline
   fun:Builtins_InterpreterEntryTrampoline
   fun:Builtins_InterpreterEntryTrampoline
   fun:Builtins_InterpreterEntryTrampoline
   fun:Builtins_InterpreterEntryTrampoline
   fun:Builtins_InterpreterEntryTrampoline
   obj:*
   fun:Builtins_InterpreterEntryTrampoline
   fun:Builtins_InterpreterEntryTrampoline
   fun:Builtins_InterpreterEntryTrampoline
   fun:Builtins_InterpreterEntryTrampoline
   fun:Builtins_InterpreterEntryTrampoline
   fun:Builtins_InterpreterEntryTrampoline
   fun:Builtins_InterpreterEntryTrampoline
   fun:Builtins_InterpreterEntryTrampoline
   fun:Builtins_InterpreterEntryTrampoline
   fun:Builtins_InterpreterEntryTrampoline
   fun:Builtins_InterpreterEntryTrampoline
   fun:Builtins_InterpreterEntryTrampoline
   fun:Builtins_InterpreterEntryTrampoline
   fun:Builtins_InterpreterEntryTrampoline
   fun:Builtins_InterpreterEntryTrampoline
   fun:Builtins_InterpreterEntryTrampoline
   fun:Builtins_InterpreterEntryTrampoline
   fun:Builtins_InterpreterEntryTrampoline
   fun:Builtins_InterpreterEntryTrampoline
   fun:Builtins_InterpreterEntryTrampoline
   fun:Builtins_InterpreterEntryTrampoline
   fun:Builtins_JSEntryTrampoline
   fun:Builtins_JSEntry
   fun:_ZN2v88internal12_GLOBAL__N_16InvokeEPNS0_7IsolateERKNS1_12InvokeParamsE
   fun:_ZN2v88internal9Execution4CallEPNS0_7IsolateENS0_6HandleINS0_6ObjectEEES6_iPS6_
   fun:_ZN2v88Function4CallENS_5LocalINS_7ContextEEENS1_INS_5ValueEEEiPS5_
   fun:_ZN4node19ExecuteBootstrapperEPNS_11EnvironmentEPKcPSt6vectorIN2v85LocalINS5_6StringEEESaIS8_EEPS4_INS6_INS5_5ValueEEESaISD_EE
   fun:_ZN4nodeL14StartExecutionEPNS_11EnvironmentEPKc
   fun:_ZN4node14StartExecutionEPNS_11EnvironmentESt8functionIFN2v810MaybeLocalINS3_5ValueEEERKNS_26StartExecutionCallbackInfoEEE
   fun:_ZN4node15LoadEnvironmentEPNS_11EnvironmentESt8functionIFN2v810MaybeLocalINS3_5ValueEEERKNS_26StartExecutionCallbackInfoEEE
   fun:_ZN4node16NodeMainInstance3RunEv
   fun:_ZN4node5StartEiPPc
   fun:(below main)
}
{
   <insert_a_suppression_name_here>
   Memcheck:Cond
   fun:checkTimestamp
   fun:parseOneRow
   fun:parseValues
   fun:parseValuesClause
   fun:parseInsertBody
   fun:parseInsertSql
   fun:qParseSql
   fun:parseSql
   fun:stmtParseSql
   fun:stmtGetParamNum
   fun:taos_stmt_num_params
   fun:_stmt_prepare
   fun:stmt_prepare
   fun:SQLPrepare
   fun:SQLPrepare
   fun:_ZN18PrepareAsyncWorker7ExecuteEv
   fun:worker
   fun:start_thread
   fun:clone
}
{
   <insert_a_suppression_name_here>
   Memcheck:Cond
   fun:checkTimestamp
   fun:qBindStmtSingleColValue
   fun:stmtBindBatch
   fun:taos_stmt_bind_single_param_batch
   fun:_stmt_bind_param_tsdb
   fun:_stmt_bind_param_with_sql_c_sbigint
   fun:_stmt_bind_param
   fun:_stmt_pre_exec_prepare_params
   fun:_stmt_pre_exec
   fun:stmt_execute
   fun:SQLExecute
   fun:SQLExecute
   fun:_ZN18ExecuteAsyncWorker7ExecuteEv
   fun:worker
   fun:start_thread
   fun:clone
}
{
   <insert_a_suppression_name_here>
   Memcheck:Leak
   match-leak-kinds: definite
   fun:calloc
   fun:taosMemoryCalloc
   fun:buildBoundFields
   fun:qBuildStmtColFields
   fun:stmtFetchColFields
   fun:stmtGetColFields
   fun:taos_stmt_get_col_fields
   fun:_stmt_prepare
   fun:stmt_prepare
   fun:SQLPrepare
   fun:SQLPrepare
   fun:_ZN18PrepareAsyncWorker7ExecuteEv
   fun:worker
   fun:start_thread
   fun:clone
}
{
   <insert_a_suppression_name_here>
   Memcheck:Leak
   match-leak-kinds: definite
   fun:_Znam
   fun:_Z12bind_buffersP13StatementData.part.38
   fun:_ZN16QueryAsyncWorker7ExecuteEv
   fun:worker
   fun:start_thread
   fun:clone
}
{
   <insert_a_suppression_name_here>
   Memcheck:Leak
   match-leak-kinds: definite
   fun:_Znam
   fun:_Z12bind_buffersP13StatementData.part.38
   fun:_ZN18ExecuteAsyncWorker7ExecuteEv
   fun:worker
   fun:start_thread
   fun:clone
}
{
   <insert_a_suppression_name_here>
   Memcheck:Leak
   match-leak-kinds: definite
   fun:calloc
   fun:taosMemoryCalloc
   fun:valueNodeCopy
   fun:nodesCloneNode
   fun:operatorNodeCopy
   fun:nodesCloneNode
   fun:getQueryTimeRange
   fun:translateWhere
   fun:translateSelectFrom
   fun:translateSelect
   fun:translateQuery
   fun:translate
   fun:qStmtParseQuerySql
   fun:stmtBindBatch
   fun:taos_stmt_bind_single_param_batch
   fun:_stmt_bind_param_tsdb
   fun:_stmt_bind_param_with_sql_c_char
   fun:_stmt_bind_param
   fun:_stmt_pre_exec_prepare_params
   fun:_stmt_pre_exec
   fun:stmt_execute
   fun:SQLExecute
   fun:SQLExecute
   fun:_ZN18ExecuteAsyncWorker7ExecuteEv
   fun:worker
   fun:start_thread
   fun:clone
}
{
   <insert_a_suppression_name_here>
   Memcheck:Leak
   match-leak-kinds: definite
   fun:calloc
   fun:taosMemoryCalloc
   fun:valueNodeCopy
   fun:nodesCloneNode
   fun:operatorNodeCopy
   fun:nodesCloneNode
   fun:getQueryTimeRange
   fun:translateWhere
   fun:translateSelectFrom
   fun:translateSelect
   fun:translateQuery
   fun:translate
   fun:qStmtParseQuerySql
   fun:stmtBindBatch
   fun:taos_stmt_bind_single_param_batch
   fun:_stmt_bind_param_tsdb
   fun:_stmt_bind_param_with_sql_c_sbigint
   fun:_stmt_bind_param
   fun:_stmt_pre_exec_prepare_params
   fun:_stmt_pre_exec
   fun:stmt_execute
   fun:SQLExecute
   fun:SQLExecute
   fun:_ZN18ExecuteAsyncWorker7ExecuteEv
   fun:worker
   fun:start_thread
   fun:clone
}
{
   <insert_a_suppression_name_here>
   Memcheck:Leak
   match-leak-kinds: definite
   fun:_Znam
   fun:_ZN15ODBCAsyncWorker13GetODBCErrorsEsPv
   fun:_ZN18ExecuteAsyncWorker7ExecuteEv
   fun:worker
   fun:start_thread
   fun:clone
}
{
   <insert_a_suppression_name_here>
   Memcheck:Leak
   match-leak-kinds: indirect
   fun:_Znam
   fun:_Z12bind_buffersP13StatementData.part.38
   fun:_ZN18ExecuteAsyncWorker7ExecuteEv
   fun:worker
   fun:start_thread
   fun:clone
}
{
   <insert_a_suppression_name_here>
   Memcheck:Leak
   match-leak-kinds: definite
   fun:_Znam
   fun:_Z14set_fetch_sizeP13StatementDatam
   fun:_ZN18ExecuteAsyncWorker7ExecuteEv
   fun:worker
   fun:start_thread
   fun:clone
}
{
   <insert_a_suppression_name_here>
   Memcheck:Leak
   match-leak-kinds: definite
   fun:_Znwm
   fun:_ZN4ODBC15StoreBindValuesEPN4Napi5ArrayEPP9Parameter
   fun:_ZN13ODBCStatement4BindERKN4Napi12CallbackInfoE
   fun:operator()
   fun:WrapCallback<Napi::InstanceWrap<T>::InstanceMethodCallbackWrapper(napi_env, napi_callback_info) [with T = ODBCStatement]::<lambda()> >
   fun:_ZN4Napi12InstanceWrapI13ODBCStatementE29InstanceMethodCallbackWrapperEP10napi_env__P20napi_callback_info__
   fun:_ZN6v8impl12_GLOBAL__N_123FunctionCallbackWrapper6InvokeERKN2v820FunctionCallbackInfoINS2_5ValueEEE
   fun:_ZN2v88internal12_GLOBAL__N_119HandleApiCallHelperILb0EEENS0_11MaybeHandleINS0_6ObjectEEEPNS0_7IsolateENS0_6HandleINS0_10HeapObjectEEESA_NS8_INS0_20FunctionTemplateInfoEEENS8_IS4_EENS0_16BuiltinArgumentsE
   fun:_ZN2v88internal21Builtin_HandleApiCallEiPmPNS0_7IsolateE
   fun:Builtins_CEntry_Return1_DontSaveFPRegs_ArgvOnStack_BuiltinExit
   fun:Builtins_InterpreterEntryTrampoline
   fun:Builtins_PromiseConstructor
   fun:Builtins_JSBuiltinsConstructStub
   fun:Builtins_ConstructHandler
   fun:Builtins_InterpreterEntryTrampoline
   fun:Builtins_InterpreterEntryTrampoline
   fun:Builtins_InterpreterEntryTrampoline
   fun:Builtins_AsyncFunctionAwaitResolveClosure
   fun:Builtins_PromiseFulfillReactionJob
   fun:Builtins_RunMicrotasks
   fun:Builtins_JSRunMicrotasksEntry
   fun:_ZN2v88internal12_GLOBAL__N_16InvokeEPNS0_7IsolateERKNS1_12InvokeParamsE
   fun:_ZN2v88internal12_GLOBAL__N_118InvokeWithTryCatchEPNS0_7IsolateERKNS1_12InvokeParamsE.constprop.58
   fun:_ZN2v88internal9Execution16TryRunMicrotasksEPNS0_7IsolateEPNS0_14MicrotaskQueueEPNS0_11MaybeHandleINS0_6ObjectEEE
   fun:_ZN2v88internal14MicrotaskQueue13RunMicrotasksEPNS0_7IsolateE.part.50
   fun:_ZN2v88internal14MicrotaskQueue17PerformCheckpointEPNS_7IsolateE
   fun:_ZN4node21InternalCallbackScope5CloseEv
   fun:_ZN4node13CallbackScopeD1Ev
   fun:_ZZN4node14ThreadPoolWork12ScheduleWorkEvENUlP9uv_work_siE0_4_FUNES2_i
   fun:uv__work_done
   fun:uv__async_io.part.1
   fun:uv__io_poll
   fun:uv_run
   fun:_ZN4node13SpinEventLoopEPNS_11EnvironmentE
   fun:_ZN4node16NodeMainInstance3RunEv
   fun:_ZN4node5StartEiPPc
   fun:(below main)
}
{
   <insert_a_suppression_name_here>
   Memcheck:Leak
   match-leak-kinds: reachable
   fun:_Znwm
   fun:_ZN2v88internal13MemoryReducer13ScheduleTimerEd
   fun:_ZN2v88internal4Heap28NotifyOldGenerationExpansionENS0_15AllocationSpaceEPNS0_11MemoryChunkE
   fun:_ZN2v88internal10PagedSpace20MergeCompactionSpaceEPNS0_15CompactionSpaceE
   fun:_ZN2v88internal9Scavenger8FinalizeEv
   fun:_ZN2v88internal18ScavengerCollector14CollectGarbageEv
   fun:_ZN2v88internal4Heap8ScavengeEv
   fun:_ZN2v88internal4Heap24PerformGarbageCollectionENS0_16GarbageCollectorENS_15GCCallbackFlagsE.constprop.1307
   fun:_ZN2v88internal4Heap14CollectGarbageENS0_15AllocationSpaceENS0_23GarbageCollectionReasonENS_15GCCallbackFlagsE
   fun:_ZN2v88internal4Heap34AllocateRawWithRetryOrFailSlowPathEiNS0_14AllocationTypeENS0_16AllocationOriginENS0_19AllocationAlignmentE
   fun:_ZN2v88internal7Factory15NewFillerObjectEibNS0_14AllocationTypeENS0_16AllocationOriginE
   fun:_ZN2v88internal33Runtime_AllocateInYoungGenerationEiPmPNS0_7IsolateE
   fun:Builtins_CEntry_Return1_DontSaveFPRegs_ArgvOnStack_NoBuiltinExit
   fun:Builtins_StringAdd_CheckNone
   obj:*
   obj:*
   obj:*
   obj:*
   obj:*
   obj:*
   obj:*
   obj:*
   obj:*
   fun:Builtins_InterpreterEntryTrampoline
   obj:*
   fun:Builtins_InterpreterEntryTrampoline
   obj:*
   obj:*
   obj:*
   obj:*
   fun:Builtins_InterpreterEntryTrampoline
   obj:*
   fun:Builtins_InterpreterEntryTrampoline
   obj:*
   obj:*
   obj:*
   obj:*
   fun:Builtins_InterpreterEntryTrampoline
   obj:*
   fun:Builtins_InterpreterEntryTrampoline
   obj:*
   obj:*
   obj:*
   obj:*
   fun:Builtins_InterpreterEntryTrampoline
   obj:*
   fun:Builtins_InterpreterEntryTrampoline
   obj:*
   obj:*
   obj:*
   obj:*
   fun:Builtins_InterpreterEntryTrampoline
   fun:Builtins_InterpreterEntryTrampoline
   fun:Builtins_InterpreterEntryTrampoline
   fun:Builtins_InterpreterEntryTrampoline
   fun:Builtins_InterpreterEntryTrampoline
   fun:Builtins_InterpreterEntryTrampoline
   obj:*
   fun:Builtins_InterpreterEntryTrampoline
   fun:Builtins_InterpreterEntryTrampoline
   fun:Builtins_InterpreterEntryTrampoline
   fun:Builtins_InterpreterEntryTrampoline
   fun:Builtins_InterpreterEntryTrampoline
   fun:Builtins_InterpreterEntryTrampoline
   fun:Builtins_InterpreterEntryTrampoline
   fun:Builtins_InterpreterEntryTrampoline
   fun:Builtins_InterpreterEntryTrampoline
   fun:Builtins_InterpreterEntryTrampoline
   fun:Builtins_InterpreterEntryTrampoline
   fun:Builtins_InterpreterEntryTrampoline
   fun:Builtins_InterpreterEntryTrampoline
   fun:Builtins_InterpreterEntryTrampoline
   fun:Builtins_InterpreterEntryTrampoline
   fun:Builtins_InterpreterEntryTrampoline
   fun:Builtins_InterpreterEntryTrampoline
   fun:Builtins_InterpreterEntryTrampoline
   fun:Builtins_InterpreterEntryTrampoline
   fun:Builtins_InterpreterEntryTrampoline
   fun:Builtins_InterpreterEntryTrampoline
   fun:Builtins_JSEntryTrampoline
   fun:Builtins_JSEntry
   fun:_ZN2v88internal12_GLOBAL__N_16InvokeEPNS0_7IsolateERKNS1_12InvokeParamsE
   fun:_ZN2v88internal9Execution4CallEPNS0_7IsolateENS0_6HandleINS0_6ObjectEEES6_iPS6_
   fun:_ZN2v88Function4CallENS_5LocalINS_7ContextEEENS1_INS_5ValueEEEiPS5_
   fun:_ZN4node19ExecuteBootstrapperEPNS_11EnvironmentEPKcPSt6vectorIN2v85LocalINS5_6StringEEESaIS8_EEPS4_INS6_INS5_5ValueEEESaISD_EE
   fun:_ZN4nodeL14StartExecutionEPNS_11EnvironmentEPKc
   fun:_ZN4node14StartExecutionEPNS_11EnvironmentESt8functionIFN2v810MaybeLocalINS3_5ValueEEERKNS_26StartExecutionCallbackInfoEEE
   fun:_ZN4node15LoadEnvironmentEPNS_11EnvironmentESt8functionIFN2v810MaybeLocalINS3_5ValueEEERKNS_26StartExecutionCallbackInfoEEE
   fun:_ZN4node16NodeMainInstance3RunEv
   fun:_ZN4node5StartEiPPc
   fun:(below main)
}
{
   <insert_a_suppression_name_here>
   Memcheck:Leak
   match-leak-kinds: reachable
   fun:_Znwm
   fun:_ZN2v88internal13MemoryReducer13ScheduleTimerEd
   fun:_ZN2v88internal4Heap28NotifyOldGenerationExpansionENS0_15AllocationSpaceEPNS0_11MemoryChunkE
   fun:_ZN2v88internal10PagedSpace20MergeCompactionSpaceEPNS0_15CompactionSpaceE
   fun:_ZN2v88internal9Scavenger8FinalizeEv
   fun:_ZN2v88internal18ScavengerCollector14CollectGarbageEv
   fun:_ZN2v88internal4Heap8ScavengeEv
   fun:_ZN2v88internal4Heap24PerformGarbageCollectionENS0_16GarbageCollectorENS_15GCCallbackFlagsE.constprop.1307
   fun:_ZN2v88internal4Heap14CollectGarbageENS0_15AllocationSpaceENS0_23GarbageCollectionReasonENS_15GCCallbackFlagsE
   fun:_ZN2v88internal4Heap34AllocateRawWithRetryOrFailSlowPathEiNS0_14AllocationTypeENS0_16AllocationOriginENS0_19AllocationAlignmentE
   fun:_ZN2v88internal7Factory15NewFillerObjectEibNS0_14AllocationTypeENS0_16AllocationOriginE
   fun:_ZN2v88internal33Runtime_AllocateInYoungGenerationEiPmPNS0_7IsolateE
   fun:Builtins_CEntry_Return1_DontSaveFPRegs_ArgvOnStack_NoBuiltinExit
   fun:Builtins_StringAdd_CheckNone
   fun:Builtins_Add_Baseline
   obj:*
   obj:*
   obj:*
   obj:*
   obj:*
   obj:*
   obj:*
   obj:*
   obj:*
   fun:Builtins_InterpreterEntryTrampoline
   obj:*
   fun:Builtins_InterpreterEntryTrampoline
   obj:*
   obj:*
   obj:*
   obj:*
   fun:Builtins_InterpreterEntryTrampoline
   obj:*
   fun:Builtins_InterpreterEntryTrampoline
   obj:*
   obj:*
   obj:*
   obj:*
   fun:Builtins_InterpreterEntryTrampoline
   obj:*
   fun:Builtins_InterpreterEntryTrampoline
   obj:*
   obj:*
   obj:*
   obj:*
   fun:Builtins_InterpreterEntryTrampoline
   obj:*
   fun:Builtins_InterpreterEntryTrampoline
   obj:*
   obj:*
   obj:*
   obj:*
   fun:Builtins_InterpreterEntryTrampoline
   fun:Builtins_InterpreterEntryTrampoline
   fun:Builtins_InterpreterEntryTrampoline
   fun:Builtins_InterpreterEntryTrampoline
   fun:Builtins_InterpreterEntryTrampoline
   fun:Builtins_InterpreterEntryTrampoline
   obj:*
   fun:Builtins_InterpreterEntryTrampoline
   fun:Builtins_InterpreterEntryTrampoline
   fun:Builtins_InterpreterEntryTrampoline
   fun:Builtins_InterpreterEntryTrampoline
   fun:Builtins_InterpreterEntryTrampoline
   fun:Builtins_InterpreterEntryTrampoline
   fun:Builtins_InterpreterEntryTrampoline
   fun:Builtins_InterpreterEntryTrampoline
   fun:Builtins_InterpreterEntryTrampoline
   fun:Builtins_InterpreterEntryTrampoline
   fun:Builtins_InterpreterEntryTrampoline
   fun:Builtins_InterpreterEntryTrampoline
   fun:Builtins_InterpreterEntryTrampoline
   fun:Builtins_InterpreterEntryTrampoline
   fun:Builtins_InterpreterEntryTrampoline
   fun:Builtins_InterpreterEntryTrampoline
   fun:Builtins_InterpreterEntryTrampoline
   fun:Builtins_InterpreterEntryTrampoline
   fun:Builtins_InterpreterEntryTrampoline
   fun:Builtins_InterpreterEntryTrampoline
   fun:Builtins_InterpreterEntryTrampoline
   fun:Builtins_JSEntryTrampoline
   fun:Builtins_JSEntry
   fun:_ZN2v88internal12_GLOBAL__N_16InvokeEPNS0_7IsolateERKNS1_12InvokeParamsE
   fun:_ZN2v88internal9Execution4CallEPNS0_7IsolateENS0_6HandleINS0_6ObjectEEES6_iPS6_
   fun:_ZN2v88Function4CallENS_5LocalINS_7ContextEEENS1_INS_5ValueEEEiPS5_
   fun:_ZN4node19ExecuteBootstrapperEPNS_11EnvironmentEPKcPSt6vectorIN2v85LocalINS5_6StringEEESaIS8_EEPS4_INS6_INS5_5ValueEEESaISD_EE
   fun:_ZN4nodeL14StartExecutionEPNS_11EnvironmentEPKc
   fun:_ZN4node14StartExecutionEPNS_11EnvironmentESt8functionIFN2v810MaybeLocalINS3_5ValueEEERKNS_26StartExecutionCallbackInfoEEE
   fun:_ZN4node15LoadEnvironmentEPNS_11EnvironmentESt8functionIFN2v810MaybeLocalINS3_5ValueEEERKNS_26StartExecutionCallbackInfoEEE
   fun:_ZN4node16NodeMainInstance3RunEv
   fun:_ZN4node5StartEiPPc
   fun:(below main)
}
{
   <insert_a_suppression_name_here>
   Memcheck:Leak
   match-leak-kinds: definite
   fun:_Znam
   fun:_ZN4ODBC15StoreBindValuesEPN4Napi5ArrayEPP9Parameter
   fun:_ZN13ODBCStatement4BindERKN4Napi12CallbackInfoE
   fun:operator()
   fun:WrapCallback<Napi::InstanceWrap<T>::InstanceMethodCallbackWrapper(napi_env, napi_callback_info) [with T = ODBCStatement]::<lambda()> >
   fun:_ZN4Napi12InstanceWrapI13ODBCStatementE29InstanceMethodCallbackWrapperEP10napi_env__P20napi_callback_info__
   fun:_ZN6v8impl12_GLOBAL__N_123FunctionCallbackWrapper6InvokeERKN2v820FunctionCallbackInfoINS2_5ValueEEE
   fun:_ZN2v88internal12_GLOBAL__N_119HandleApiCallHelperILb0EEENS0_11MaybeHandleINS0_6ObjectEEEPNS0_7IsolateENS0_6HandleINS0_10HeapObjectEEESA_NS8_INS0_20FunctionTemplateInfoEEENS8_IS4_EENS0_16BuiltinArgumentsE
   fun:_ZN2v88internal21Builtin_HandleApiCallEiPmPNS0_7IsolateE
   fun:Builtins_CEntry_Return1_DontSaveFPRegs_ArgvOnStack_BuiltinExit
   fun:Builtins_InterpreterEntryTrampoline
   fun:Builtins_PromiseConstructor
   fun:Builtins_JSBuiltinsConstructStub
   fun:Builtins_ConstructHandler
   fun:Builtins_InterpreterEntryTrampoline
   fun:Builtins_InterpreterEntryTrampoline
   fun:Builtins_InterpreterEntryTrampoline
   fun:Builtins_AsyncFunctionAwaitResolveClosure
   fun:Builtins_PromiseFulfillReactionJob
   fun:Builtins_RunMicrotasks
   fun:Builtins_JSRunMicrotasksEntry
   fun:_ZN2v88internal12_GLOBAL__N_16InvokeEPNS0_7IsolateERKNS1_12InvokeParamsE
   fun:_ZN2v88internal12_GLOBAL__N_118InvokeWithTryCatchEPNS0_7IsolateERKNS1_12InvokeParamsE.constprop.58
   fun:_ZN2v88internal9Execution16TryRunMicrotasksEPNS0_7IsolateEPNS0_14MicrotaskQueueEPNS0_11MaybeHandleINS0_6ObjectEEE
   fun:_ZN2v88internal14MicrotaskQueue13RunMicrotasksEPNS0_7IsolateE.part.50
   fun:_ZN2v88internal14MicrotaskQueue17PerformCheckpointEPNS_7IsolateE
   fun:_ZN4node21InternalCallbackScope5CloseEv
   fun:_ZN4node13CallbackScopeD1Ev
   fun:_ZZN4node14ThreadPoolWork12ScheduleWorkEvENUlP9uv_work_siE0_4_FUNES2_i
   fun:uv__work_done
   fun:uv__async_io.part.1
   fun:uv__io_poll
   fun:uv_run
   fun:_ZN4node13SpinEventLoopEPNS_11EnvironmentE
   fun:_ZN4node16NodeMainInstance3RunEv
   fun:_ZN4node5StartEiPPc
   fun:(below main)
}
{
   <insert_a_suppression_name_here>
   Memcheck:Param
   write(buf)
   fun:__libc_write
   fun:write
   fun:uv__writev
   fun:uv__try_write.isra.5
   fun:uv__write
   fun:uv__write
   fun:uv_write2
   fun:uv_write
   fun:cliSend
   fun:cliHandleReq
   fun:cliAsyncCb
   fun:uv__async_io.part.1
   fun:uv__io_poll
   fun:uv_run
   fun:cliWorkThread
   fun:start_thread
   fun:clone
}

