{
   <insert_a_suppression_name_here>
   Memcheck:Leak
   match-leak-kinds: reachable
   fun:malloc
   fun:_ZN5alloc5alloc5alloc17h8e717bc525d3ae3dE
   fun:_ZN5alloc5alloc6Global10alloc_impl17h4071b2a230b84766E
   fun:_ZN63_$LT$alloc..alloc..Global$u20$as$u20$core..alloc..Allocator$GT$8allocate17h8571955448832cdeE
   fun:_ZN5alloc5alloc15exchange_malloc17he1e78d2e27422031E
   fun:new<env_logger::fmt::{impl#5}::build::{closure_env#0}>
   fun:_ZN10env_logger3fmt7Builder5build17hcb6bd0f78ad5251cE
   fun:_ZN10env_logger7Builder5build17ha8b37633cd33d416E
   fun:_ZN10env_logger7Builder8try_init17he0f954e399e18afaE
   fun:_ZN10env_logger17try_init_from_env17h7252ef955196e729E
   fun:_ZN10env_logger8try_init17heb231b5b822d27cbE
   fun:_ZN10env_logger4init17h0727353e5079f214E
}
{
   <insert_a_suppression_name_here>
   Memcheck:Leak
   match-leak-kinds: reachable
   fun:malloc
   fun:_ZN5alloc5alloc5alloc17h5369f2ce36af4c08E
   fun:_ZN5alloc5alloc6Global10alloc_impl17h74fe7eb4c6c39cf0E
   fun:_ZN63_$LT$alloc..alloc..Global$u20$as$u20$core..alloc..Allocator$GT$8allocate17hfe64edfb8a97ed3dE
   fun:_ZN5alloc7raw_vec11finish_grow17h6b097d389d101528E
   fun:_ZN5alloc7raw_vec19RawVec$LT$T$C$A$GT$14grow_amortized17h751be1758152c3ceE
   fun:_ZN5alloc7raw_vec19RawVec$LT$T$C$A$GT$16reserve_for_push17h732be60b74aeec0cE
   fun:_ZN5alloc3vec16Vec$LT$T$C$A$GT$4push17h717f02e6c234f7a2E
   fun:_ZN10env_logger6filter7Builder5build17ha9acfa34d1725b7aE
   fun:_ZN10env_logger7Builder5build17ha8b37633cd33d416E
   fun:_ZN10env_logger7Builder8try_init17he0f954e399e18afaE
   fun:_ZN10env_logger17try_init_from_env17h7252ef955196e729E
   fun:_ZN10env_logger8try_init17heb231b5b822d27cbE
   fun:_ZN10env_logger4init17h0727353e5079f214E
}
{
   <insert_a_suppression_name_here>
   Memcheck:Leak
   match-leak-kinds: reachable
   fun:malloc
   fun:_ZN5alloc5alloc5alloc17h8e717bc525d3ae3dE
   fun:_ZN5alloc5alloc6Global10alloc_impl17h4071b2a230b84766E
   fun:_ZN63_$LT$alloc..alloc..Global$u20$as$u20$core..alloc..Allocator$GT$8allocate17h8571955448832cdeE
   fun:_ZN5alloc5alloc15exchange_malloc17he1e78d2e27422031E
   fun:new<env_logger::Logger>
   fun:_ZN10env_logger7Builder8try_init17he0f954e399e18afaE
   fun:_ZN10env_logger17try_init_from_env17h7252ef955196e729E
   fun:_ZN10env_logger8try_init17heb231b5b822d27cbE
   fun:_ZN10env_logger4init17h0727353e5079f214E
}

